ccopy_reg
_reconstructor
p1
(cmolecules
ProtoAntibody
p2
c__builtin__
object
p3
NtRp4
(dp5
S'energy'
p6
F-53.133300000000006
sS'light_chain'
p7
S'K'
sS'cluster'
p8
NsS'parts'
p9
(dp10
S'KJ'
p11
S'3'
sS'KCDR3'
p12
S'137'
p13
sS'HV'
p14
S'8'
sS'HJ'
p15
S'1'
sS'HCDR3'
p16
S'3'
sS'KV'
p17
S'1'
ssS'coords'
p18
NsS'position'
p19
(F300
F-2.5
F-2.5
F16.25
tp20
sb.