ccopy_reg
_reconstructor
p1
(cmolecules
ProtoAntibody
p2
c__builtin__
object
p3
NtRp4
(dp5
S'energy'
p6
F-21.216299999999997
sS'light_chain'
p7
S'K'
sS'cluster'
p8
NsS'parts'
p9
(dp10
S'KJ'
p11
S'3'
sS'KCDR3'
p12
S'128'
p13
sS'HV'
p14
S'8'
sS'HJ'
p15
S'1'
sS'HCDR3'
p16
S'92'
p17
sS'KV'
p18
S'54'
p19
ssS'coords'
p20
NsS'position'
p21
(F300
F-5
F2.5
F16.25
tp22
sb.