ccopy_reg
_reconstructor
p1
(cmolecules
ProtoAntibody
p2
c__builtin__
object
p3
NtRp4
(dp5
S'energy'
p6
F12988966.2897
sS'light_chain'
p7
S'L'
sS'cluster'
p8
NsS'parts'
p9
(dp10
S'HJ'
p11
S'1'
sS'LJ'
p12
S'5'
sS'HV'
p13
S'108'
p14
sS'LV'
p15
S'32'
p16
sS'HCDR3'
p17
S'95'
p18
sS'LCDR3'
p19
S'5'
ssS'coords'
p20
NsS'position'
p21
(F180
F5
F10
F11.25
tp22
sb.