ccopy_reg
_reconstructor
p1
(cmolecules
ProtoAntibody
p2
c__builtin__
object
p3
NtRp4
(dp5
S'energy'
p6
F577001.15549999988
sS'light_chain'
p7
S'K'
sS'cluster'
p8
NsS'parts'
p9
(dp10
S'KJ'
p11
S'3'
sS'KCDR3'
p12
S'3'
sS'HV'
p13
S'137'
p14
sS'HJ'
p15
S'4'
sS'HCDR3'
p16
S'95'
p17
sS'KV'
p18
S'35'
p19
ssS'coords'
p20
NsS'position'
p21
(F60
F-5
F7.5
F11.25
tp22
sb.