(lp1
(lp2
S'KCDR3'
p3
aS'84'
p4
aF0.65139999999999998
aa(lp5
S'KCDR3'
p6
aS'85'
p7
aF3.4607999999999999
aa(lp8
S'KCDR3'
p9
aS'106'
p10
aF1.8933999999999997
aa(lp11
S'KCDR3'
p12
aS'107'
p13
aF0.62270000000000003
aa(lp14
S'KCDR3'
p15
aS'104'
p16
aF1.5067999999999999
aa(lp17
S'KCDR3'
p18
aS'105'
p19
aF1.9678000000000002
aa(lp20
S'KCDR3'
p21
aS'102'
p22
aF0.86609999999999987
aa(lp23
S'KCDR3'
p24
aS'103'
p25
aF2.1457999999999999
aa(lp26
S'KCDR3'
p27
aS'100'
p28
aF1.5325
aa(lp29
S'KCDR3'
p30
aS'195'
p31
aF0.73880000000000001
aa(lp32
S'KCDR3'
p33
aS'88'
p34
aF1200.7644
aa(lp35
S'KCDR3'
p36
aS'108'
p37
aF0.48330000000000001
aa(lp38
S'KCDR3'
p39
aS'109'
p40
aF0.49890000000000001
aa(lp41
S'KCDR3'
p42
aS'89'
p43
aF1.0867
aa(lp44
S'HCDR3'
p45
aS'408'
p46
aF305675971.97850001
aa(lp47
S'HCDR3'
p48
aS'409'
p49
aF457335851.95309997
aa(lp50
S'HCDR3'
p51
aS'158'
p52
aF35060708.701100007
aa(lp53
S'HCDR3'
p54
aS'159'
p55
aF9999999764.7374001
aa(lp56
S'HCDR3'
p57
aS'404'
p58
aF10000000085.286701
aa(lp59
S'HCDR3'
p60
aS'405'
p61
aF654041521.18869996
aa(lp62
S'HCDR3'
p63
aS'406'
p64
aF10000000179.584702
aa(lp65
S'HCDR3'
p66
aS'407'
p67
aF92104828.111000001
aa(lp68
S'HCDR3'
p69
aS'400'
p70
aF433392384.38889998
aa(lp71
S'HCDR3'
p72
aS'153'
p73
aF10000000061.144402
aa(lp74
S'HCDR3'
p75
aS'402'
p76
aF10000000025.466702
aa(lp77
S'HCDR3'
p78
aS'151'
p79
aF7476225583.3884001
aa(lp80
S'HV'
p81
aS'31'
p82
aF9999999828.427
aa(lp83
S'HV'
p84
aS'30'
p85
aF9999999829.7206001
aa(lp86
S'HV'
p87
aS'33'
p88
aF10000000169.461201
aa(lp89
S'HV'
p90
aS'32'
p91
aF9999999820.3469009
aa(lp92
S'HV'
p93
aS'35'
p94
aF10000000131.429701
aa(lp95
S'HV'
p96
aS'34'
p97
aF10000000111.963501
aa(lp98
S'HV'
p99
aS'37'
p100
aF1948070827.8334
aa(lp101
S'HV'
p102
aS'36'
p103
aF1934882766.0259001
aa(lp104
S'HV'
p105
aS'39'
p106
aF2147086980.3438001
aa(lp107
S'HV'
p108
aS'38'
p109
aF1508691073.1719
aa(lp110
S'HCDR3'
p111
aS'396'
p112
aF10000000076.787901
aa(lp113
S'HCDR3'
p114
aS'397'
p115
aF10000000020.986401
aa(lp116
S'HCDR3'
p117
aS'390'
p118
aF10000000001.585201
aa(lp119
S'HCDR3'
p120
aS'391'
p121
aF1310795502.6417999
aa(lp122
S'HCDR3'
p123
aS'392'
p124
aF517306319.45319998
aa(lp125
S'HCDR3'
p126
aS'393'
p127
aF857304307.11409998
aa(lp128
S'KCDR3'
p129
aS'197'
p130
aF-1.0566
aa(lp131
S'HCDR3'
p132
aS'279'
p133
aF267026122.25869998
aa(lp134
S'HCDR3'
p135
aS'278'
p136
aF9999999862.5383015
aa(lp137
S'HCDR3'
p138
aS'273'
p139
aF10000000002.819101
aa(lp140
S'HCDR3'
p141
aS'272'
p142
aF608919046.44770002
aa(lp143
S'HCDR3'
p144
aS'271'
p145
aF10000000164.566
aa(lp146
S'HCDR3'
p147
aS'270'
p148
aF1654319291.2835
aa(lp149
S'HCDR3'
p150
aS'277'
p151
aF10000000021.043301
aa(lp152
S'HCDR3'
p153
aS'276'
p154
aF1457861961.7946
aa(lp155
S'HCDR3'
p156
aS'275'
p157
aF557522367.50619996
aa(lp158
S'HCDR3'
p159
aS'274'
p160
aF9999999945.2014999
aa(lp161
S'KCDR3'
p162
aS'196'
p163
aF1.9114999999999998
aa(lp164
S'LV'
p165
aS'33'
p166
aF4.7984
aa(lp167
S'LCDR3'
p168
aS'17'
p169
aF-0.318
aa(lp170
S'HCDR3'
p171
aS'58'
p172
aF1212.9321
aa(lp173
S'HCDR3'
p174
aS'30'
p175
aF11264.606299999999
aa(lp176
S'HCDR3'
p177
aS'54'
p178
aF10000000083.088701
aa(lp179
S'HCDR3'
p180
aS'55'
p181
aF51.363100000000003
aa(lp182
S'HCDR3'
p183
aS'56'
p184
aF21022.008699999998
aa(lp185
S'HCDR3'
p186
aS'57'
p187
aF2892048073.9395003
aa(lp188
S'HCDR3'
p189
aS'50'
p190
aF34.548900000000003
aa(lp191
S'HCDR3'
p192
aS'51'
p193
aF3910614039.6455998
aa(lp194
S'HCDR3'
p195
aS'52'
p196
aF891447585.14709997
aa(lp197
S'HCDR3'
p198
aS'53'
p199
aF15.189
aa(lp200
S'HV'
p201
aS'108'
p202
aF2193515.3922999999
aa(lp203
S'HV'
p204
aS'109'
p205
aF6315377684.2314997
aa(lp206
S'HV'
p207
aS'100'
p208
aF3761238614.6230001
aa(lp209
S'HV'
p210
aS'101'
p211
aF5351728564.8050995
aa(lp212
S'HV'
p213
aS'102'
p214
aF10000000032.485802
aa(lp215
S'HV'
p216
aS'103'
p217
aF112499015.37100001
aa(lp218
S'HV'
p219
aS'104'
p220
aF766994342.65970004
aa(lp221
S'HV'
p222
aS'105'
p223
aF803353317.00390005
aa(lp224
S'HV'
p225
aS'106'
p226
aF174824831.64770001
aa(lp227
S'HV'
p228
aS'107'
p229
aF404907372.45989996
aa(lp230
S'KV'
p231
aS'21'
p232
aF-0.12880000000000003
aa(lp233
S'KV'
p234
aS'20'
p235
aF0.0032999999999999974
aa(lp236
S'KV'
p237
aS'23'
p238
aF-0.38300000000000001
aa(lp239
S'KV'
p240
aS'22'
p241
aF-0.053900000000000017
aa(lp242
S'KV'
p243
aS'25'
p244
aF-0.1167
aa(lp245
S'HCDR3'
p246
aS'49'
p247
aF4919209.5375999995
aa(lp248
S'KV'
p249
aS'27'
p250
aF-0.35139999999999999
aa(lp251
S'KV'
p252
aS'29'
p253
aF-0.38670000000000004
aa(lp254
S'KV'
p255
aS'28'
p256
aF-0.063
aa(lp257
S'HV'
p258
aS'110'
p259
aF176151100.42650002
aa(lp260
S'KCDR3'
p261
aS'190'
p262
aF-0.67730000000000001
aa(lp263
S'KCDR3'
p264
aS'51'
p265
aF1.4098999999999999
aa(lp266
S'KCDR3'
p267
aS'50'
p268
aF0.59720000000000006
aa(lp269
S'KCDR3'
p270
aS'53'
p271
aF1.8109999999999999
aa(lp272
S'KCDR3'
p273
aS'52'
p274
aF0.96970000000000001
aa(lp275
S'KCDR3'
p276
aS'55'
p277
aF0.1593
aa(lp278
S'HCDR3'
p279
aS'38'
p280
aF31.4803
aa(lp281
S'KCDR3'
p282
aS'57'
p283
aF0.38319999999999999
aa(lp284
S'KCDR3'
p285
aS'56'
p286
aF-0.72219999999999995
aa(lp287
S'KCDR3'
p288
aS'59'
p289
aF0.40780000000000005
aa(lp290
S'KCDR3'
p291
aS'58'
p292
aF-0.23429999999999998
aa(lp293
S'HCDR3'
p294
aS'39'
p295
aF21.34
aa(lp296
S'LV'
p297
aS'37'
p298
aF6.9966999999999997
aa(lp299
S'LCDR3'
p300
aS'11'
p301
aF0.125
aa(lp302
S'KCDR3'
p303
aS'54'
p304
aF1.0044
aa(lp305
S'LV'
p306
aS'36'
p307
aF7.7748999999999997
aa(lp308
S'LV'
p309
aS'31'
p310
aF-1.4364000000000001
aa(lp311
S'KCDR3'
p312
aS'193'
p313
aF1.2182999999999999
aa(lp314
S'LCDR3'
p315
aS'27'
p316
aF-0.8639
aa(lp317
S'LV'
p318
aS'30'
p319
aF1.5665000000000002
aa(lp320
S'HCDR3'
p321
aS'41'
p322
aF9999999851.153801
aa(lp323
S'HCDR3'
p324
aS'40'
p325
aF1889.6958
aa(lp326
S'KCDR3'
p327
aS'192'
p328
aF0.45090000000000002
aa(lp329
S'HCDR3'
p330
aS'156'
p331
aF10000000044.8862
aa(lp332
S'HCDR3'
p333
aS'157'
p334
aF10000000044.594101
aa(lp335
S'KCDR3'
p336
aS'65'
p337
aF0.77290000000000003
aa(lp338
S'HCDR3'
p339
aS'154'
p340
aF1547192.8151
aa(lp341
S'HCDR3'
p342
aS'155'
p343
aF398605849.14320004
aa(lp344
S'HV'
p345
aS'68'
p346
aF388727442.23609996
aa(lp347
S'HV'
p348
aS'69'
p349
aF370242639.17650002
aa(lp350
S'HV'
p351
aS'66'
p352
aF364778469.59040004
aa(lp353
S'HV'
p354
aS'67'
p355
aF271088214.1742
aa(lp356
S'HV'
p357
aS'64'
p358
aF9999999938.3151016
aa(lp359
S'HV'
p360
aS'65'
p361
aF321393411.64029998
aa(lp362
S'HV'
p363
aS'62'
p364
aF10000000067.898401
aa(lp365
S'HV'
p366
aS'63'
p367
aF9999999939.2232018
aa(lp368
S'HV'
p369
aS'60'
p370
aF223893164.05739999
aa(lp371
S'HV'
p372
aS'61'
p373
aF1638841984.2024
aa(lp374
S'HCDR3'
p375
aS'150'
p376
aF35084317.238699995
aa(lp377
S'HCDR3'
p378
aS'403'
p379
aF10000000019.5252
aa(lp380
S'HCDR3'
p381
aS'358'
p382
aF10000000327.6945
aa(lp383
S'HCDR3'
p384
aS'359'
p385
aF9999999663.9363003
aa(lp386
S'HCDR3'
p387
aS'350'
p388
aF3.5510000000000002
aa(lp389
S'HCDR3'
p390
aS'351'
p391
aF10000000032.9706
aa(lp392
S'HCDR3'
p393
aS'352'
p394
aF10000000004.555
aa(lp395
S'HCDR3'
p396
aS'353'
p397
aF10000000034.927801
aa(lp398
S'HCDR3'
p399
aS'354'
p400
aF10000000206.053202
aa(lp401
S'HCDR3'
p402
aS'355'
p403
aF9999999959.081501
aa(lp404
S'HCDR3'
p405
aS'356'
p406
aF39544869.278400004
aa(lp407
S'HCDR3'
p408
aS'357'
p409
aF286960702.36150002
aa(lp410
S'KCDR3'
p411
aS'78'
p412
aF0.57119999999999993
aa(lp413
S'HCDR3'
p414
aS'398'
p415
aF10000000049.0326
aa(lp416
S'HCDR3'
p417
aS'399'
p418
aF10000000063.796202
aa(lp419
S'HJ'
p420
aS'5'
aF0.0309
aa(lp421
S'HJ'
p422
aS'4'
aF0.024900000000000002
aa(lp423
S'HJ'
p424
aS'3'
aF0.025700000000000001
aa(lp425
S'HJ'
p426
aS'2'
aF0.021500000000000002
aa(lp427
S'HJ'
p428
aS'1'
aF0.0085000000000000006
aa(lp429
S'LJ'
p430
aS'6'
aF0.0407
aa(lp431
S'KCDR3'
p432
aS'82'
p433
aF0.92369999999999997
aa(lp434
S'HCDR3'
p435
aS'394'
p436
aF10000000021.136002
aa(lp437
S'KCDR3'
p438
aS'80'
p439
aF3.4172999999999996
aa(lp440
S'KCDR3'
p441
aS'81'
p442
aF4.0054999999999996
aa(lp443
S'KCDR3'
p444
aS'86'
p445
aF1.8237000000000001
aa(lp446
S'KCDR3'
p447
aS'87'
p448
aF0.55649999999999999
aa(lp449
S'KCDR3'
p450
aS'179'
p451
aF0.10919999999999996
aa(lp452
S'HCDR3'
p453
aS'395'
p454
aF2426004877.3130002
aa(lp455
S'KCDR3'
p456
aS'191'
p457
aF1.7338
aa(lp458
S'KCDR3'
p459
aS'176'
p460
aF0.83090000000000008
aa(lp461
S'KCDR3'
p462
aS'175'
p463
aF0.64100000000000001
aa(lp464
S'KCDR3'
p465
aS'174'
p466
aF1.1829999999999998
aa(lp467
S'KCDR3'
p468
aS'173'
p469
aF0.92889999999999995
aa(lp470
S'KCDR3'
p471
aS'172'
p472
aF0.56309999999999993
aa(lp473
S'KCDR3'
p474
aS'171'
p475
aF0.27279999999999999
aa(lp476
S'KCDR3'
p477
aS'170'
p478
aF0.74419999999999997
aa(lp479
S'KCDR3'
p480
aS'70'
p481
aF0.33710000000000007
aa(lp482
S'KCDR3'
p483
aS'77'
p484
aF-0.96139999999999992
aa(lp485
S'KCDR3'
p486
aS'76'
p487
aF-0.15360000000000001
aa(lp488
S'HCDR3'
p489
aS'127'
p490
aF9999999911.0876999
aa(lp491
S'HCDR3'
p492
aS'126'
p493
aF3199487935.7639003
aa(lp494
S'HCDR3'
p495
aS'125'
p496
aF720183.55650000006
aa(lp497
S'HCDR3'
p498
aS'124'
p499
aF595.69470000000001
aa(lp500
S'HCDR3'
p501
aS'123'
p502
aF1251522.3818000001
aa(lp503
S'HCDR3'
p504
aS'122'
p505
aF4005.5272
aa(lp506
S'HCDR3'
p507
aS'121'
p508
aF1849.4670999999998
aa(lp509
S'HCDR3'
p510
aS'120'
p511
aF129345148.9551
aa(lp512
S'KCDR3'
p513
aS'74'
p514
aF-1.5116000000000001
aa(lp515
S'HCDR3'
p516
aS'425'
p517
aF9999999894.7968006
aa(lp518
S'HCDR3'
p519
aS'129'
p520
aF7.5411000000000001
aa(lp521
S'HCDR3'
p522
aS'128'
p523
aF36938.053
aa(lp524
S'HCDR3'
p525
aS'301'
p526
aF15867.9637
aa(lp527
S'HV'
p528
aS'140'
p529
aF4738843534.2863007
aa(lp530
S'HV'
p531
aS'141'
p532
aF2334971576.6420999
aa(lp533
S'KCDR3'
p534
aS'24'
p535
aF-0.38399999999999995
aa(lp536
S'HV'
p537
aS'9'
aF6215565694.6746998
aa(lp538
S'HV'
p539
aS'8'
aF279088.69079999998
aa(lp540
S'KCDR3'
p541
aS'19'
p542
aF-6.8224
aa(lp543
S'KCDR3'
p544
aS'18'
p545
aF0.5112000000000001
aa(lp546
S'KCDR3'
p547
aS'25'
p548
aF0.56789999999999996
aa(lp549
S'HV'
p550
aS'3'
aF10000000049.851702
aa(lp551
S'HV'
p552
aS'2'
aF9999999971.6017017
aa(lp553
S'HV'
p554
aS'1'
aF9999999971.8837013
aa(lp555
S'KCDR3'
p556
aS'16'
p557
aF-2.1202999999999999
aa(lp558
S'HV'
p559
aS'7'
aF10000000053.0888
aa(lp560
S'HV'
p561
aS'6'
aF9999999760.6136017
aa(lp562
S'HV'
p563
aS'5'
aF9999999735.0192013
aa(lp564
S'HV'
p565
aS'4'
aF9999999894.5399017
aa(lp566
S'HCDR3'
p567
aS'220'
p568
aF510.51600000000002
aa(lp569
S'HCDR3'
p570
aS'221'
p571
aF9999999964.2431011
aa(lp572
S'HCDR3'
p573
aS'222'
p574
aF10000000098.138102
aa(lp575
S'HCDR3'
p576
aS'223'
p577
aF9999999892.4737015
aa(lp578
S'HCDR3'
p579
aS'224'
p580
aF9999999888.9939003
aa(lp581
S'HCDR3'
p582
aS'225'
p583
aF246577744.5059
aa(lp584
S'HCDR3'
p585
aS'226'
p586
aF2819984599.3927002
aa(lp587
S'HCDR3'
p588
aS'227'
p589
aF9999999970.3524017
aa(lp590
S'HCDR3'
p591
aS'228'
p592
aF240626509.79979998
aa(lp593
S'HCDR3'
p594
aS'229'
p595
aF9999999980.1676006
aa(lp596
S'KCDR3'
p597
aS'83'
p598
aF1.5956999999999999
aa(lp599
S'LCDR3'
p600
aS'32'
p601
aF-0.154
aa(lp602
S'LCDR3'
p603
aS'33'
p604
aF0.26060000000000005
aa(lp605
S'LCDR3'
p606
aS'30'
p607
aF0.11209999999999999
aa(lp608
S'LCDR3'
p609
aS'31'
p610
aF0.057599999999999998
aa(lp611
S'LCDR3'
p612
aS'36'
p613
aF-0.92389999999999994
aa(lp614
S'LV'
p615
aS'9'
aF-0.24429999999999999
aa(lp616
S'LCDR3'
p617
aS'34'
p618
aF-0.3342
aa(lp619
S'LCDR3'
p620
aS'35'
p621
aF-0.17600000000000002
aa(lp622
S'KCDR3'
p623
aS'28'
p624
aF-0.72670000000000001
aa(lp625
S'LCDR3'
p626
aS'38'
p627
aF-4.7237
aa(lp628
S'LV'
p629
aS'8'
aF5.3326000000000002
aa(lp630
S'KCDR3'
p631
aS'29'
p632
aF0.97999999999999987
aa(lp633
S'KCDR3'
p634
aS'68'
p635
aF-0.77550000000000008
aa(lp636
S'HCDR3'
p637
aS'90'
p638
aF725875.97560000001
aa(lp639
S'HCDR3'
p640
aS'91'
p641
aF10000000319.4736
aa(lp642
S'KCDR3'
p643
aS'60'
p644
aF0.54430000000000001
aa(lp645
S'KCDR3'
p646
aS'61'
p647
aF0.13899999999999998
aa(lp648
S'KCDR3'
p649
aS'62'
p650
aF1.6500999999999999
aa(lp651
S'KCDR3'
p652
aS'63'
p653
aF1.1209
aa(lp654
S'KCDR3'
p655
aS'64'
p656
aF1.8689000000000002
aa(lp657
S'HCDR3'
p658
aS'92'
p659
aF23702.120000000003
aa(lp660
S'KCDR3'
p661
aS'66'
p662
aF1.8472999999999999
aa(lp663
S'KCDR3'
p664
aS'67'
p665
aF2.0795999999999997
aa(lp666
S'HCDR3'
p667
aS'93'
p668
aF127.9746
aa(lp669
S'HCDR3'
p670
aS'332'
p671
aF10000000006.439001
aa(lp672
S'HCDR3'
p673
aS'333'
p674
aF9999999979.3354015
aa(lp675
S'LCDR3'
p676
aS'8'
aF0.067699999999999982
aa(lp677
S'LCDR3'
p678
aS'9'
aF0.13580000000000003
aa(lp679
S'HCDR3'
p680
aS'330'
p681
aF9999999952.6105003
aa(lp682
S'LCDR3'
p683
aS'2'
aF-0.54369999999999996
aa(lp684
S'LCDR3'
p685
aS'3'
aF-1.1639999999999999
aa(lp686
S'HCDR3'
p687
aS'97'
p688
aF4855671.9438000005
aa(lp689
S'LCDR3'
p690
aS'6'
aF-0.3004
aa(lp691
S'LCDR3'
p692
aS'7'
aF-0.10230000000000006
aa(lp693
S'LCDR3'
p694
aS'4'
aF0.98009999999999997
aa(lp695
S'LCDR3'
p696
aS'5'
aF0.49969999999999998
aa(lp697
S'HCDR3'
p698
aS'314'
p699
aF10000000159.859001
aa(lp700
S'HCDR3'
p701
aS'315'
p702
aF9999999973.9591999
aa(lp703
S'HCDR3'
p704
aS'316'
p705
aF10000000410.830601
aa(lp706
S'HCDR3'
p707
aS'317'
p708
aF10000000448.4016
aa(lp709
S'HCDR3'
p710
aS'310'
p711
aF10000000159.495401
aa(lp712
S'HCDR3'
p713
aS'311'
p714
aF17245576.708500002
aa(lp715
S'HCDR3'
p716
aS'312'
p717
aF9999999954.9363003
aa(lp718
S'HCDR3'
p719
aS'313'
p720
aF9999999829.1420002
aa(lp721
S'KCDR3'
p722
aS'198'
p723
aF0.52380000000000027
aa(lp724
S'HCDR3'
p725
aS'318'
p726
aF132964987.4735
aa(lp727
S'HCDR3'
p728
aS'319'
p729
aF151616318.44639999
aa(lp730
S'LV'
p731
aS'19'
p732
aF-6.8834999999999997
aa(lp733
S'HV'
p734
aS'97'
p735
aF5992480329.1259995
aa(lp736
S'HV'
p737
aS'96'
p738
aF10000000053.297501
aa(lp739
S'HV'
p740
aS'95'
p741
aF9999999993.8751011
aa(lp742
S'HV'
p743
aS'94'
p744
aF10000000056.5499
aa(lp745
S'HV'
p746
aS'93'
p747
aF9999999959.3669014
aa(lp748
S'HV'
p749
aS'92'
p750
aF7408590306.4870005
aa(lp751
S'HV'
p752
aS'91'
p753
aF9999999804.0296001
aa(lp754
S'HV'
p755
aS'90'
p756
aF9999999804.7529011
aa(lp757
S'KCDR3'
p758
aS'133'
p759
aF0.6643
aa(lp760
S'KCDR3'
p761
aS'132'
p762
aF1.0618000000000001
aa(lp763
S'KCDR3'
p764
aS'131'
p765
aF-1.8628
aa(lp766
S'KCDR3'
p767
aS'130'
p768
aF0.60939999999999994
aa(lp769
S'KCDR3'
p770
aS'137'
p771
aF-1.1063000000000001
aa(lp772
S'KCDR3'
p773
aS'136'
p774
aF-0.84639999999999993
aa(lp775
S'HV'
p776
aS'99'
p777
aF9999999969.9403
aa(lp778
S'HV'
p779
aS'98'
p780
aF10000000017.426001
aa(lp781
S'HCDR3'
p782
aS'31'
p783
aF9510.1206000000002
aa(lp784
S'KCDR3'
p785
aS'134'
p786
aF1.4224999999999999
aa(lp787
S'HCDR3'
p788
aS'163'
p789
aF6718183732.6378002
aa(lp790
S'HCDR3'
p791
aS'162'
p792
aF11175641.828199999
aa(lp793
S'HCDR3'
p794
aS'161'
p795
aF109.4263
aa(lp796
S'HCDR3'
p797
aS'160'
p798
aF230408.63320000001
aa(lp799
S'HCDR3'
p800
aS'167'
p801
aF778.40420000000006
aa(lp802
S'HCDR3'
p803
aS'166'
p804
aF9999999961.8683014
aa(lp805
S'HCDR3'
p806
aS'165'
p807
aF7745134064.0747004
aa(lp808
S'HCDR3'
p809
aS'164'
p810
aF7212462373.1721001
aa(lp811
S'HCDR3'
p812
aS'169'
p813
aF1000271141.5715001
aa(lp814
S'HCDR3'
p815
aS'168'
p816
aF1525113.48
aa(lp817
S'HV'
p818
aS'22'
p819
aF431692134.43869996
aa(lp820
S'HV'
p821
aS'23'
p822
aF920679707.51030004
aa(lp823
S'HV'
p824
aS'20'
p825
aF6625733625.2847996
aa(lp826
S'HV'
p827
aS'21'
p828
aF9999999966.4740009
aa(lp829
S'HV'
p830
aS'26'
p831
aF395097969.32160002
aa(lp832
S'HV'
p833
aS'27'
p834
aF319180118.0431
aa(lp835
S'HCDR3'
p836
aS'367'
p837
aF9999999522.839201
aa(lp838
S'HV'
p839
aS'25'
p840
aF317258623.07260001
aa(lp841
S'HCDR3'
p842
aS'369'
p843
aF10000000075.506701
aa(lp844
S'HCDR3'
p845
aS'368'
p846
aF2928047453.3999996
aa(lp847
S'HV'
p848
aS'28'
p849
aF9999999825.0896015
aa(lp850
S'HV'
p851
aS'29'
p852
aF9999999819.8166008
aa(lp853
S'KCDR3'
p854
aS'182'
p855
aF0.27810000000000001
aa(lp856
S'KCDR3'
p857
aS'183'
p858
aF-0.66159999999999997
aa(lp859
S'KCDR3'
p860
aS'180'
p861
aF0.49689999999999995
aa(lp862
S'KCDR3'
p863
aS'181'
p864
aF0.83960000000000001
aa(lp865
S'HCDR3'
p866
aS'189'
p867
aF42288722.291000001
aa(lp868
S'HCDR3'
p869
aS'188'
p870
aF10000000113.399801
aa(lp871
S'HCDR3'
p872
aS'181'
p873
aF10000000179.2847
aa(lp874
S'HCDR3'
p875
aS'180'
p876
aF146987.21650000001
aa(lp877
S'HCDR3'
p878
aS'183'
p879
aF305349780.70230001
aa(lp880
S'HCDR3'
p881
aS'182'
p882
aF58412539.391600005
aa(lp883
S'HCDR3'
p884
aS'185'
p885
aF1638039223.3421001
aa(lp886
S'HCDR3'
p887
aS'184'
p888
aF692.76599999999996
aa(lp889
S'HCDR3'
p890
aS'187'
p891
aF58401749.285300002
aa(lp892
S'HCDR3'
p893
aS'186'
p894
aF1128511682
aa(lp895
S'HCDR3'
p896
aS'268'
p897
aF13.292400000000001
aa(lp898
S'HCDR3'
p899
aS'269'
p900
aF10000000123.6436
aa(lp901
S'HCDR3'
p902
aS'264'
p903
aF1448633.4661000001
aa(lp904
S'HCDR3'
p905
aS'265'
p906
aF9999999981.8109016
aa(lp907
S'HCDR3'
p908
aS'266'
p909
aF10000000097.469101
aa(lp910
S'HCDR3'
p911
aS'267'
p912
aF9999999997.5646
aa(lp913
S'HCDR3'
p914
aS'260'
p915
aF9999999925.0755005
aa(lp916
S'HCDR3'
p917
aS'261'
p918
aF129915.2487
aa(lp919
S'HCDR3'
p920
aS'262'
p921
aF9999999811.4478016
aa(lp922
S'HCDR3'
p923
aS'263'
p924
aF5861815.8097999999
aa(lp925
S'LV'
p926
aS'34'
p927
aF4.7303999999999995
aa(lp928
S'HCDR3'
p929
aS'366'
p930
aF9999999721.1134014
aa(lp931
S'HV'
p932
aS'117'
p933
aF10000000017.214001
aa(lp934
S'HV'
p935
aS'116'
p936
aF10000000018.6681
aa(lp937
S'HV'
p938
aS'115'
p939
aF9999999974.1012001
aa(lp940
S'HV'
p941
aS'114'
p942
aF9999999981.1024017
aa(lp943
S'HV'
p944
aS'113'
p945
aF9999999976.3599014
aa(lp946
S'HV'
p947
aS'112'
p948
aF4263728855.6162996
aa(lp949
S'HV'
p950
aS'111'
p951
aF9999999957.3896999
aa(lp952
S'HCDR3'
p953
aS'48'
p954
aF11.604299999999999
aa(lp955
S'HCDR3'
p956
aS'47'
p957
aF9999999849.7507
aa(lp958
S'HCDR3'
p959
aS'46'
p960
aF8521377.1023999993
aa(lp961
S'HCDR3'
p962
aS'45'
p963
aF28625267.915399998
aa(lp964
S'HCDR3'
p965
aS'44'
p966
aF61844760.900399998
aa(lp967
S'HCDR3'
p968
aS'43'
p969
aF798535146.7119
aa(lp970
S'HCDR3'
p971
aS'42'
p972
aF62717.424700000003
aa(lp973
S'HV'
p974
aS'119'
p975
aF10000000023.2481
aa(lp976
S'HV'
p977
aS'118'
p978
aF10000000034.851301
aa(lp979
S'KV'
p980
aS'32'
p981
aF0.71910000000000007
aa(lp982
S'KV'
p983
aS'33'
p984
aF0.72460000000000013
aa(lp985
S'KV'
p986
aS'30'
p987
aF-0.1143
aa(lp988
S'KV'
p989
aS'31'
p990
aF-0.025400000000000006
aa(lp991
S'KV'
p992
aS'36'
p993
aF2.4346000000000001
aa(lp994
S'KV'
p995
aS'37'
p996
aF-1.5379
aa(lp997
S'KV'
p998
aS'34'
p999
aF-0.63070000000000004
aa(lp1000
S'KV'
p1001
aS'35'
p1002
aF0.0069000000000000172
aa(lp1003
S'KV'
p1004
aS'38'
p1005
aF2.3154999999999997
aa(lp1006
S'KV'
p1007
aS'39'
p1008
aF-16.301500000000001
aa(lp1009
S'KCDR3'
p1010
aS'117'
p1011
aF-11.299199999999999
aa(lp1012
S'HCDR3'
p1013
aS'219'
p1014
aF214593134.9174
aa(lp1015
S'HCDR3'
p1016
aS'218'
p1017
aF9999999996.7179012
aa(lp1018
S'KCDR3'
p1019
aS'26'
p1020
aF0.77289999999999992
aa(lp1021
S'KCDR3'
p1022
aS'116'
p1023
aF-0.90129999999999999
aa(lp1024
S'KCDR3'
p1025
aS'20'
p1026
aF0.61439999999999995
aa(lp1027
S'KCDR3'
p1028
aS'21'
p1029
aF-1.6733
aa(lp1030
S'KCDR3'
p1031
aS'22'
p1032
aF-1.2010000000000001
aa(lp1033
S'KCDR3'
p1034
aS'23'
p1035
aF-0.79459999999999997
aa(lp1036
S'HCDR3'
p1037
aS'211'
p1038
aF576083315.03129995
aa(lp1039
S'HCDR3'
p1040
aS'210'
p1041
aF959813.16949999996
aa(lp1042
S'HCDR3'
p1043
aS'213'
p1044
aF37082688.993199997
aa(lp1045
S'HCDR3'
p1046
aS'212'
p1047
aF9999999935.0209007
aa(lp1048
S'HCDR3'
p1049
aS'215'
p1050
aF15454091.9659
aa(lp1051
S'HCDR3'
p1052
aS'214'
p1053
aF9999999994.0603008
aa(lp1054
S'HCDR3'
p1055
aS'217'
p1056
aF6924721281.4566002
aa(lp1057
S'HCDR3'
p1058
aS'216'
p1059
aF9999999955.9906006
aa(lp1060
S'KCDR3'
p1061
aS'92'
p1062
aF0.60739999999999994
aa(lp1063
S'KCDR3'
p1064
aS'128'
p1065
aF-1.0932999999999999
aa(lp1066
S'HCDR3'
p1067
aS'59'
p1068
aF20.933299999999999
aa(lp1069
S'KCDR3'
p1070
aS'119'
p1071
aF0.075900000000000023
aa(lp1072
S'KCDR3'
p1073
aS'118'
p1074
aF-5.8771999999999993
aa(lp1075
S'KCDR3'
p1076
aS'124'
p1077
aF0.96940000000000004
aa(lp1078
S'HCDR3'
p1079
aS'8'
aF-6.3313000000000006
aa(lp1080
S'HCDR3'
p1081
aS'9'
aF110.04910000000001
aa(lp1082
S'HCDR3'
p1083
aS'6'
aF609222.15839999996
aa(lp1084
S'HCDR3'
p1085
aS'7'
aF-0.7397999999999999
aa(lp1086
S'HCDR3'
p1087
aS'4'
aF-1.1817
aa(lp1088
S'HCDR3'
p1089
aS'5'
aF-7.5175000000000001
aa(lp1090
S'HCDR3'
p1091
aS'2'
aF-3.4684999999999997
aa(lp1092
S'HCDR3'
p1093
aS'3'
aF-7.726
aa(lp1094
S'HCDR3'
p1095
aS'1'
aF-0.97930000000000006
aa(lp1096
S'KCDR3'
p1097
aS'1'
aF-0.23480000000000001
aa(lp1098
S'HV'
p1099
aS'59'
p1100
aF274553345.85729998
aa(lp1101
S'HV'
p1102
aS'58'
p1103
aF9999999937.5911999
aa(lp1104
S'KCDR3'
p1105
aS'5'
aF0.94180000000000008
aa(lp1106
S'KCDR3'
p1107
aS'4'
aF0.19040000000000001
aa(lp1108
S'KCDR3'
p1109
aS'7'
aF0.24209999999999998
aa(lp1110
S'KCDR3'
p1111
aS'6'
aF-1.3678000000000001
aa(lp1112
S'HV'
p1113
aS'53'
p1114
aF10000000105.516401
aa(lp1115
S'HV'
p1116
aS'52'
p1117
aF10000000116.007601
aa(lp1118
S'HV'
p1119
aS'51'
p1120
aF10000000093.207701
aa(lp1121
S'HV'
p1122
aS'50'
p1123
aF10000000088.371
aa(lp1124
S'HV'
p1125
aS'57'
p1126
aF10000000083.7418
aa(lp1127
S'HV'
p1128
aS'56'
p1129
aF10000000089.751902
aa(lp1130
S'HV'
p1131
aS'55'
p1132
aF10000000103.865501
aa(lp1133
S'HV'
p1134
aS'54'
p1135
aF10000000077.589001
aa(lp1136
S'LCDR3'
p1137
aS'37'
p1138
aF-2.2288999999999999
aa(lp1139
S'HCDR3'
p1140
aS'329'
p1141
aF10000000136.708601
aa(lp1142
S'HCDR3'
p1143
aS'328'
p1144
aF5233452256.1842003
aa(lp1145
S'HCDR3'
p1146
aS'325'
p1147
aF9999999781.2186012
aa(lp1148
S'HCDR3'
p1149
aS'324'
p1150
aF10000000082.161301
aa(lp1151
S'HCDR3'
p1152
aS'327'
p1153
aF2313416729.3738999
aa(lp1154
S'HCDR3'
p1155
aS'326'
p1156
aF9999999953.1201
aa(lp1157
S'HCDR3'
p1158
aS'321'
p1159
aF13239722.505799999
aa(lp1160
S'HCDR3'
p1161
aS'320'
p1162
aF9999999910.8297005
aa(lp1163
S'HCDR3'
p1164
aS'323'
p1165
aF10000000042.839201
aa(lp1166
S'HCDR3'
p1167
aS'322'
p1168
aF9999999898.7211018
aa(lp1169
S'HCDR3'
p1170
aS'145'
p1171
aF39216.939399999996
aa(lp1172
S'HCDR3'
p1173
aS'144'
p1174
aF9999999961.9073009
aa(lp1175
S'HCDR3'
p1176
aS'147'
p1177
aF30291727.859399997
aa(lp1178
S'HCDR3'
p1179
aS'146'
p1180
aF209991.6354
aa(lp1181
S'HCDR3'
p1182
aS'417'
p1183
aF1547277398.8172998
aa(lp1184
S'KCDR3'
p1185
aS'35'
p1186
aF0.81869999999999998
aa(lp1187
S'KCDR3'
p1188
aS'3'
aF0.98949999999999994
aa(lp1189
S'HCDR3'
p1190
aS'140'
p1191
aF37.942599999999999
aa(lp1192
S'KCDR3'
p1193
aS'160'
p1194
aF0.75269999999999992
aa(lp1195
S'KCDR3'
p1196
aS'161'
p1197
aF0.56840000000000002
aa(lp1198
S'KCDR3'
p1199
aS'162'
p1200
aF0.63919999999999999
aa(lp1201
S'KCDR3'
p1202
aS'96'
p1203
aF0.23159999999999997
aa(lp1204
S'KCDR3'
p1205
aS'164'
p1206
aF0.29239999999999999
aa(lp1207
S'HCDR3'
p1208
aS'415'
p1209
aF9999999934.4622002
aa(lp1210
S'KCDR3'
p1211
aS'93'
p1212
aF0.57420000000000004
aa(lp1213
S'KCDR3'
p1214
aS'167'
p1215
aF0.60860000000000003
aa(lp1216
S'KCDR3'
p1217
aS'168'
p1218
aF0.29190000000000005
aa(lp1219
S'KCDR3'
p1220
aS'169'
p1221
aF-0.13619999999999999
aa(lp1222
S'HCDR3'
p1223
aS'414'
p1224
aF664585741.0151
aa(lp1225
S'KCDR3'
p1226
aS'99'
p1227
aF0.92069999999999996
aa(lp1228
S'KCDR3'
p1229
aS'98'
p1230
aF1.2177
aa(lp1231
S'HCDR3'
p1232
aS'138'
p1233
aF461641432.1918
aa(lp1234
S'HCDR3'
p1235
aS'139'
p1236
aF2641017.2117999997
aa(lp1237
S'KCDR3'
p1238
aS'69'
p1239
aF-1.3425
aa(lp1240
S'HCDR3'
p1241
aS'130'
p1242
aF57162.633600000001
aa(lp1243
S'HCDR3'
p1244
aS'131'
p1245
aF5862.7967000000008
aa(lp1246
S'HCDR3'
p1247
aS'132'
p1248
aF326633237.50440001
aa(lp1249
S'HCDR3'
p1250
aS'133'
p1251
aF6067478685.0566006
aa(lp1252
S'HCDR3'
p1253
aS'134'
p1254
aF2542856666.5678997
aa(lp1255
S'HCDR3'
p1256
aS'135'
p1257
aF21647.370299999999
aa(lp1258
S'HCDR3'
p1259
aS'136'
p1260
aF168714850.67570001
aa(lp1261
S'HCDR3'
p1262
aS'137'
p1263
aF77269.598400000003
aa(lp1264
S'HCDR3'
p1265
aS'426'
p1266
aF10000000095.9566
aa(lp1267
S'HCDR3'
p1268
aS'427'
p1269
aF10000000274.110201
aa(lp1270
S'HCDR3'
p1271
aS'424'
p1272
aF6123157958.8451996
aa(lp1273
S'HV'
p1274
aS'47'
p1275
aF10000000118.508801
aa(lp1276
S'HCDR3'
p1277
aS'422'
p1278
aF9999999874.6072006
aa(lp1279
S'HCDR3'
p1280
aS'423'
p1281
aF51246226.871399999
aa(lp1282
S'HCDR3'
p1283
aS'420'
p1284
aF10000000259.320501
aa(lp1285
S'HCDR3'
p1286
aS'421'
p1287
aF9999999917.2554016
aa(lp1288
S'HCDR3'
p1289
aS'428'
p1290
aF9999999944.1312008
aa(lp1291
S'LV'
p1292
aS'17'
p1293
aF0.59670000000000001
aa(lp1294
S'LV'
p1295
aS'16'
p1296
aF-2.7143999999999999
aa(lp1297
S'KV'
p1298
aS'24'
p1299
aF-0.1694
aa(lp1300
S'KCDR3'
p1301
aS'14'
p1302
aF-0.15440000000000001
aa(lp1303
S'LV'
p1304
aS'7'
aF1.4087000000000001
aa(lp1305
S'HV'
p1306
aS'48'
p1307
aF946635685.34570003
aa(lp1308
S'HV'
p1309
aS'49'
p1310
aF10000000088.1667
aa(lp1311
S'HCDR3'
p1312
aS'255'
p1313
aF1486511903.8401
aa(lp1314
S'HCDR3'
p1315
aS'254'
p1316
aF10000000033.0772
aa(lp1317
S'HCDR3'
p1318
aS'257'
p1319
aF2687321280.9289002
aa(lp1320
S'HCDR3'
p1321
aS'256'
p1322
aF3019490822.4707999
aa(lp1323
S'HCDR3'
p1324
aS'251'
p1325
aF25232.347900000001
aa(lp1326
S'HCDR3'
p1327
aS'250'
p1328
aF4596590227.6084995
aa(lp1329
S'HCDR3'
p1330
aS'253'
p1331
aF9999999945.9220009
aa(lp1332
S'HCDR3'
p1333
aS'252'
p1334
aF59234122.674200006
aa(lp1335
S'HCDR3'
p1336
aS'259'
p1337
aF10000000288.150101
aa(lp1338
S'HCDR3'
p1339
aS'258'
p1340
aF9999999921.1072006
aa(lp1341
S'KCDR3'
p1342
aS'11'
p1343
aF0.29020000000000001
aa(lp1344
S'HCDR3'
p1345
aS'36'
p1346
aF18.230799999999999
aa(lp1347
S'HCDR3'
p1348
aS'37'
p1349
aF4669979.8799999999
aa(lp1350
S'HCDR3'
p1351
aS'34'
p1352
aF5.9002999999999997
aa(lp1353
S'HCDR3'
p1354
aS'35'
p1355
aF3.3050999999999999
aa(lp1356
S'HCDR3'
p1357
aS'32'
p1358
aF3251792.5776
aa(lp1359
S'HCDR3'
p1360
aS'33'
p1361
aF21.250599999999999
aa(lp1362
S'HV'
p1363
aS'128'
p1364
aF10000000001.953402
aa(lp1365
S'HV'
p1366
aS'129'
p1367
aF9999999940.949501
aa(lp1368
S'HV'
p1369
aS'126'
p1370
aF2675943865.2374001
aa(lp1371
S'HV'
p1372
aS'127'
p1373
aF3108918526.7971001
aa(lp1374
S'HV'
p1375
aS'124'
p1376
aF3720903365.7683001
aa(lp1377
S'HV'
p1378
aS'125'
p1379
aF3878509662.2894998
aa(lp1380
S'HV'
p1381
aS'122'
p1382
aF10000000035.148901
aa(lp1383
S'HV'
p1384
aS'123'
p1385
aF1705069.7644
aa(lp1386
S'HV'
p1387
aS'120'
p1388
aF10000000028.861502
aa(lp1389
S'HV'
p1390
aS'121'
p1391
aF10000000029.311001
aa(lp1392
S'LCDR3'
p1393
aS'25'
p1394
aF-0.55930000000000002
aa(lp1395
S'LCDR3'
p1396
aS'24'
p1397
aF0.52249999999999996
aa(lp1398
S'LV'
p1399
aS'5'
aF-1.7997000000000001
aa(lp1400
S'LCDR3'
p1401
aS'26'
p1402
aF-0.4909
aa(lp1403
S'LCDR3'
p1404
aS'21'
p1405
aF0.0091999999999999998
aa(lp1406
S'LCDR3'
p1407
aS'20'
p1408
aF0.44599999999999995
aa(lp1409
S'LCDR3'
p1410
aS'23'
p1411
aF0.1515
aa(lp1412
S'LCDR3'
p1413
aS'22'
p1414
aF-0.59589999999999999
aa(lp1415
S'LCDR3'
p1416
aS'29'
p1417
aF-0.22
aa(lp1418
S'LCDR3'
p1419
aS'28'
p1420
aF-0.59099999999999997
aa(lp1421
S'KV'
p1422
aS'49'
p1423
aF-24.3124
aa(lp1424
S'KV'
p1425
aS'48'
p1426
aF-2.6601999999999997
aa(lp1427
S'KV'
p1428
aS'43'
p1429
aF2.641
aa(lp1430
S'KCDR3'
p1431
aS'72'
p1432
aF0.71420000000000006
aa(lp1433
S'KV'
p1434
aS'41'
p1435
aF-23.768900000000002
aa(lp1436
S'KV'
p1437
aS'40'
p1438
aF-6.0778999999999996
aa(lp1439
S'KV'
p1440
aS'47'
p1441
aF-16.520299999999999
aa(lp1442
S'KV'
p1443
aS'46'
p1444
aF7.4312999999999994
aa(lp1445
S'KV'
p1446
aS'45'
p1447
aF1601.8806999999999
aa(lp1448
S'KV'
p1449
aS'44'
p1450
aF-18.990199999999998
aa(lp1451
S'HCDR3'
p1452
aS'374'
p1453
aF17718918.277799997
aa(lp1454
S'HV'
p1455
aS'18'
p1456
aF9999999983.9598007
aa(lp1457
S'LV'
p1458
aS'3'
aF1.0904
aa(lp1459
S'HV'
p1460
aS'15'
p1461
aF9999999962.4991016
aa(lp1462
S'HCDR3'
p1463
aS'379'
p1464
aF9999999624.7936001
aa(lp1465
S'KJ'
p1466
aS'1'
aF0.0407
aa(lp1467
S'LV'
p1468
aS'2'
aF1.1819
aa(lp1469
S'KJ'
p1470
aS'2'
aF0.0407
aa(lp1471
S'HV'
p1472
aS'80'
p1473
aF10000000076.226101
aa(lp1474
S'HV'
p1475
aS'81'
p1476
aF9999999981.9568005
aa(lp1477
S'HV'
p1478
aS'82'
p1479
aF418124374.97189999
aa(lp1480
S'HV'
p1481
aS'83'
p1482
aF2340693281.3160996
aa(lp1483
S'HV'
p1484
aS'84'
p1485
aF10000000085.254702
aa(lp1486
S'HV'
p1487
aS'85'
p1488
aF10000000086.2929
aa(lp1489
S'HV'
p1490
aS'86'
p1491
aF10000000080.943602
aa(lp1492
S'HV'
p1493
aS'87'
p1494
aF10000000126.580801
aa(lp1495
S'HV'
p1496
aS'88'
p1497
aF9999999910.8781013
aa(lp1498
S'HV'
p1499
aS'89'
p1500
aF9999999896.3457012
aa(lp1501
S'KCDR3'
p1502
aS'126'
p1503
aF0.26979999999999998
aa(lp1504
S'KCDR3'
p1505
aS'127'
p1506
aF0.68999999999999995
aa(lp1507
S'KCDR3'
p1508
aS'120'
p1509
aF0.56019999999999992
aa(lp1510
S'KCDR3'
p1511
aS'121'
p1512
aF0.26029999999999998
aa(lp1513
S'KCDR3'
p1514
aS'122'
p1515
aF1.2685
aa(lp1516
S'KCDR3'
p1517
aS'123'
p1518
aF0.52810000000000001
aa(lp1519
S'LV'
p1520
aS'1'
aF1.4590000000000001
aa(lp1521
S'HCDR3'
p1522
aS'174'
p1523
aF4483927475.5221996
aa(lp1524
S'HCDR3'
p1525
aS'175'
p1526
aF2354282.5
aa(lp1527
S'HCDR3'
p1528
aS'176'
p1529
aF2520663.9922000002
aa(lp1530
S'HCDR3'
p1531
aS'177'
p1532
aF55841601.866799995
aa(lp1533
S'HCDR3'
p1534
aS'170'
p1535
aF9999999906.5409012
aa(lp1536
S'HCDR3'
p1537
aS'171'
p1538
aF10000000041.294102
aa(lp1539
S'HCDR3'
p1540
aS'172'
p1541
aF80328997.072500005
aa(lp1542
S'HCDR3'
p1543
aS'173'
p1544
aF3397949.5433999998
aa(lp1545
S'KCDR3'
p1546
aS'34'
p1547
aF1.0497000000000001
aa(lp1548
S'HCDR3'
p1549
aS'178'
p1550
aF9999999950.3257008
aa(lp1551
S'HCDR3'
p1552
aS'179'
p1553
aF9999999999.2572002
aa(lp1554
S'HCDR3'
p1555
aS'372'
p1556
aF537996044.29569995
aa(lp1557
S'HCDR3'
p1558
aS'373'
p1559
aF9998621586.5578003
aa(lp1560
S'HCDR3'
p1561
aS'370'
p1562
aF81907219.011000007
aa(lp1563
S'HCDR3'
p1564
aS'371'
p1565
aF10000000145.394501
aa(lp1566
S'HCDR3'
p1567
aS'376'
p1568
aF1593695746.4184999
aa(lp1569
S'HCDR3'
p1570
aS'377'
p1571
aF10000000070.444201
aa(lp1572
S'HV'
p1573
aS'19'
p1574
aF3991710431.9474001
aa(lp1575
S'HCDR3'
p1576
aS'375'
p1577
aF9999999921.3522015
aa(lp1578
S'HV'
p1579
aS'17'
p1580
aF393529187.99489999
aa(lp1581
S'HV'
p1582
aS'16'
p1583
aF10000000323.319901
aa(lp1584
S'HCDR3'
p1585
aS'378'
p1586
aF10000000041.305101
aa(lp1587
S'HV'
p1588
aS'14'
p1589
aF9999999998.5691013
aa(lp1590
S'HV'
p1591
aS'13'
p1592
aF150032124.20460001
aa(lp1593
S'HV'
p1594
aS'12'
p1595
aF9999999818.1441002
aa(lp1596
S'HV'
p1597
aS'11'
p1598
aF9999999982.0620003
aa(lp1599
S'HV'
p1600
aS'10'
p1601
aF4208735350.1693001
aa(lp1602
S'HCDR3'
p1603
aS'198'
p1604
aF343000480.56209999
aa(lp1605
S'HCDR3'
p1606
aS'199'
p1607
aF88381010.875799999
aa(lp1608
S'HCDR3'
p1609
aS'192'
p1610
aF1027570196.7352
aa(lp1611
S'HCDR3'
p1612
aS'193'
p1613
aF9999999917.6504002
aa(lp1614
S'HCDR3'
p1615
aS'190'
p1616
aF4508707185.7098999
aa(lp1617
S'HCDR3'
p1618
aS'191'
p1619
aF1125199.1043
aa(lp1620
S'HCDR3'
p1621
aS'196'
p1622
aF209056457.3012
aa(lp1623
S'HCDR3'
p1624
aS'197'
p1625
aF5333679.7200000007
aa(lp1626
S'HCDR3'
p1627
aS'194'
p1628
aF9248013936.2304993
aa(lp1629
S'HCDR3'
p1630
aS'195'
p1631
aF712419.11439999996
aa(lp1632
S'KCDR3'
p1633
aS'159'
p1634
aF0.075399999999999995
aa(lp1635
S'KCDR3'
p1636
aS'158'
p1637
aF0.32149999999999995
aa(lp1638
S'KCDR3'
p1639
aS'151'
p1640
aF0.43100000000000005
aa(lp1641
S'KCDR3'
p1642
aS'150'
p1643
aF0.70469999999999999
aa(lp1644
S'KCDR3'
p1645
aS'153'
p1646
aF-1.1753
aa(lp1647
S'KCDR3'
p1648
aS'152'
p1649
aF0.57740000000000002
aa(lp1650
S'KCDR3'
p1651
aS'155'
p1652
aF1.0945999999999998
aa(lp1653
S'KCDR3'
p1654
aS'154'
p1655
aF-0.77049999999999996
aa(lp1656
S'KCDR3'
p1657
aS'157'
p1658
aF-0.69300000000000006
aa(lp1659
S'KCDR3'
p1660
aS'156'
p1661
aF0.35250000000000004
aa(lp1662
S'HCDR3'
p1663
aS'291'
p1664
aF9999999955.8170013
aa(lp1665
S'HCDR3'
p1666
aS'290'
p1667
aF341808.41029999999
aa(lp1668
S'HCDR3'
p1669
aS'293'
p1670
aF2318150.5493000001
aa(lp1671
S'HCDR3'
p1672
aS'292'
p1673
aF9999999963.4900017
aa(lp1674
S'HCDR3'
p1675
aS'295'
p1676
aF4230594.8515999997
aa(lp1677
S'HCDR3'
p1678
aS'294'
p1679
aF10000000069.3899
aa(lp1680
S'HCDR3'
p1681
aS'297'
p1682
aF10000000014.132601
aa(lp1683
S'HCDR3'
p1684
aS'296'
p1685
aF49467675.487300001
aa(lp1686
S'HCDR3'
p1687
aS'299'
p1688
aF9999999983.2604008
aa(lp1689
S'HCDR3'
p1690
aS'298'
p1691
aF2676464345.4934001
aa(lp1692
S'HCDR3'
p1693
aS'101'
p1694
aF1729024.3654
aa(lp1695
S'HCDR3'
p1696
aS'100'
p1697
aF226096.13640000002
aa(lp1698
S'HCDR3'
p1699
aS'103'
p1700
aF58755638.461400002
aa(lp1701
S'HCDR3'
p1702
aS'102'
p1703
aF286837.58070000005
aa(lp1704
S'HCDR3'
p1705
aS'105'
p1706
aF9999999869.6181011
aa(lp1707
S'HCDR3'
p1708
aS'104'
p1709
aF57415868.936300002
aa(lp1710
S'HCDR3'
p1711
aS'107'
p1712
aF97.502800000000008
aa(lp1713
S'HCDR3'
p1714
aS'106'
p1715
aF3623296.5229000002
aa(lp1716
S'HCDR3'
p1717
aS'109'
p1718
aF370301.61550000001
aa(lp1719
S'HCDR3'
p1720
aS'108'
p1721
aF4964899843.2683001
aa(lp1722
S'HCDR3'
p1723
aS'72'
p1724
aF9623.1532999999999
aa(lp1725
S'HCDR3'
p1726
aS'73'
p1727
aF115.6033
aa(lp1728
S'HCDR3'
p1729
aS'70'
p1730
aF260072369.32880002
aa(lp1731
S'HCDR3'
p1732
aS'71'
p1733
aF30.497199999999999
aa(lp1734
S'HCDR3'
p1735
aS'76'
p1736
aF7055.9513999999999
aa(lp1737
S'HCDR3'
p1738
aS'77'
p1739
aF23.569699999999997
aa(lp1740
S'HCDR3'
p1741
aS'74'
p1742
aF1437968926.6324999
aa(lp1743
S'HCDR3'
p1744
aS'75'
p1745
aF209264.71899999998
aa(lp1746
S'LV'
p1747
aS'26'
p1748
aF-5.1139999999999999
aa(lp1749
S'LV'
p1750
aS'27'
p1751
aF2.0085000000000002
aa(lp1752
S'HCDR3'
p1753
aS'78'
p1754
aF341113.75059999997
aa(lp1755
S'HCDR3'
p1756
aS'79'
p1757
aF87191185.182600006
aa(lp1758
S'LV'
p1759
aS'22'
p1760
aF-3.4611999999999998
aa(lp1761
S'LV'
p1762
aS'23'
p1763
aF-0.038699999999999957
aa(lp1764
S'LV'
p1765
aS'20'
p1766
aF-6.9034000000000004
aa(lp1767
S'KCDR3'
p1768
aS'73'
p1769
aF0.041900000000000021
aa(lp1770
S'KCDR3'
p1771
aS'38'
p1772
aF0.58170000000000011
aa(lp1773
S'HCDR3'
p1774
aS'152'
p1775
aF3844649.8907999997
aa(lp1776
S'KCDR3'
p1777
aS'13'
p1778
aF0.93989999999999996
aa(lp1779
S'KCDR3'
p1780
aS'177'
p1781
aF0.67489999999999994
aa(lp1782
S'KCDR3'
p1783
aS'37'
p1784
aF0.87980000000000003
aa(lp1785
S'KCDR3'
p1786
aS'36'
p1787
aF0.91049999999999998
aa(lp1788
S'HCDR3'
p1789
aS'208'
p1790
aF1069683.9265999999
aa(lp1791
S'HCDR3'
p1792
aS'209'
p1793
aF1017333861.3255999
aa(lp1794
S'KCDR3'
p1795
aS'33'
p1796
aF0.1137
aa(lp1797
S'KCDR3'
p1798
aS'32'
p1799
aF0.69010000000000005
aa(lp1800
S'KCDR3'
p1801
aS'31'
p1802
aF0.41900000000000004
aa(lp1803
S'KCDR3'
p1804
aS'30'
p1805
aF1.3455999999999999
aa(lp1806
S'HCDR3'
p1807
aS'202'
p1808
aF230076665.0918
aa(lp1809
S'HCDR3'
p1810
aS'203'
p1811
aF1822379979.2984002
aa(lp1812
S'HCDR3'
p1813
aS'200'
p1814
aF1797873178.5056999
aa(lp1815
S'HCDR3'
p1816
aS'201'
p1817
aF10000000065.2707
aa(lp1818
S'HCDR3'
p1819
aS'206'
p1820
aF1168087.3760000002
aa(lp1821
S'HCDR3'
p1822
aS'207'
p1823
aF9999999653.217701
aa(lp1824
S'HCDR3'
p1825
aS'204'
p1826
aF10000000042.185902
aa(lp1827
S'HCDR3'
p1828
aS'205'
p1829
aF10000000092.546101
aa(lp1830
S'KJ'
p1831
aS'5'
aF0.0407
aa(lp1832
S'KCDR3'
p1833
aS'79'
p1834
aF0.11889999999999999
aa(lp1835
S'HCDR3'
p1836
aS'401'
p1837
aF9999999982.4700012
aa(lp1838
S'KCDR3'
p1839
aS'95'
p1840
aF0.63
aa(lp1841
S'LCDR3'
p1842
aS'18'
p1843
aF0.037500000000000006
aa(lp1844
S'LCDR3'
p1845
aS'19'
p1846
aF0.19889999999999999
aa(lp1847
S'KCDR3'
p1848
aS'94'
p1849
aF0.3629
aa(lp1850
S'LCDR3'
p1851
aS'14'
p1852
aF-0.32000000000000001
aa(lp1853
S'LCDR3'
p1854
aS'15'
p1855
aF-0.2515
aa(lp1856
S'LCDR3'
p1857
aS'16'
p1858
aF-0.0008000000000000021
aa(lp1859
S'LV'
p1860
aS'4'
aF1.2284999999999999
aa(lp1861
S'LCDR3'
p1862
aS'10'
p1863
aF0.21659999999999999
aa(lp1864
S'KCDR3'
p1865
aS'97'
p1866
aF0.91220000000000012
aa(lp1867
S'LCDR3'
p1868
aS'12'
p1869
aF-0.98740000000000006
aa(lp1870
S'LCDR3'
p1871
aS'13'
p1872
aF0.39989999999999998
aa(lp1873
S'KCDR3'
p1874
aS'163'
p1875
aF0.5776
aa(lp1876
S'KCDR3'
p1877
aS'91'
p1878
aF0.3211
aa(lp1879
S'KCDR3'
p1880
aS'2'
aF-1.8366
aa(lp1881
S'KCDR3'
p1882
aS'188'
p1883
aF-8.5126999999999988
aa(lp1884
S'KCDR3'
p1885
aS'90'
p1886
aF1.3562000000000001
aa(lp1887
S'KCDR3'
p1888
aS'15'
p1889
aF-1.1415999999999999
aa(lp1890
S'KCDR3'
p1891
aS'166'
p1892
aF1.3393999999999999
aa(lp1893
S'LJ'
p1894
aS'3'
aF0.0407
aa(lp1895
S'LJ'
p1896
aS'2'
aF0.0407
aa(lp1897
S'LJ'
p1898
aS'1'
aF0.0407
aa(lp1899
S'KCDR3'
p1900
aS'189'
p1901
aF-8.1013000000000002
aa(lp1902
S'LJ'
p1903
aS'7'
aF0.0407
aa(lp1904
S'KCDR3'
p1905
aS'139'
p1906
aF0.94789999999999996
aa(lp1907
S'LJ'
p1908
aS'5'
aF0.0407
aa(lp1909
S'LJ'
p1910
aS'4'
aF0.0407
aa(lp1911
S'KCDR3'
p1912
aS'138'
p1913
aF0.96719999999999984
aa(lp1914
S'HCDR3'
p1915
aS'98'
p1916
aF1689184.8962000001
aa(lp1917
S'HCDR3'
p1918
aS'99'
p1919
aF167670.2004
aa(lp1920
S'HCDR3'
p1921
aS'338'
p1922
aF10000000228.431002
aa(lp1923
S'HCDR3'
p1924
aS'339'
p1925
aF9999999940.9378014
aa(lp1926
S'HCDR3'
p1927
aS'336'
p1928
aF2268788399.7585001
aa(lp1929
S'HCDR3'
p1930
aS'337'
p1931
aF3640003568.3162003
aa(lp1932
S'HCDR3'
p1933
aS'334'
p1934
aF10000000156.0909
aa(lp1935
S'HCDR3'
p1936
aS'335'
p1937
aF192800.18210000001
aa(lp1938
S'HCDR3'
p1939
aS'94'
p1940
aF-8.6029
aa(lp1941
S'HCDR3'
p1942
aS'95'
p1943
aF247967196.0422
aa(lp1944
S'HCDR3'
p1945
aS'96'
p1946
aF11535.5558
aa(lp1947
S'HCDR3'
p1948
aS'331'
p1949
aF57531514.351799995
aa(lp1950
S'KCDR3'
p1951
aS'101'
p1952
aF1.9988000000000001
aa(lp1953
S'KCDR3'
p1954
aS'17'
p1955
aF1.8117000000000001
aa(lp1956
S'KCDR3'
p1957
aS'12'
p1958
aF1.0878000000000001
aa(lp1959
S'KCDR3'
p1960
aS'115'
p1961
aF-6.9704999999999995
aa(lp1962
S'KCDR3'
p1963
aS'114'
p1964
aF-4.7790999999999997
aa(lp1965
S'KV'
p1966
aS'8'
aF1.1133000000000002
aa(lp1967
S'KV'
p1968
aS'9'
aF-3.3053999999999997
aa(lp1969
S'KCDR3'
p1970
aS'111'
p1971
aF0.73429999999999995
aa(lp1972
S'KCDR3'
p1973
aS'135'
p1974
aF-0.014800000000000035
aa(lp1975
S'KCDR3'
p1976
aS'113'
p1977
aF-2.4612000000000003
aa(lp1978
S'KCDR3'
p1979
aS'112'
p1980
aF-3.6806999999999999
aa(lp1981
S'KV'
p1982
aS'2'
aF-4.0575000000000001
aa(lp1983
S'KV'
p1984
aS'1'
aF-0.94230000000000003
aa(lp1985
S'KV'
p1986
aS'6'
aF1.7530000000000001
aa(lp1987
S'KV'
p1988
aS'7'
aF1.7094
aa(lp1989
S'KV'
p1990
aS'4'
aF1.3132999999999999
aa(lp1991
S'KV'
p1992
aS'5'
aF1.3875
aa(lp1993
S'HCDR3'
p1994
aS'419'
p1995
aF10000000089.375601
aa(lp1996
S'HCDR3'
p1997
aS'418'
p1998
aF9999999983.3797016
aa(lp1999
S'HCDR3'
p2000
aS'149'
p2001
aF25221226.9859
aa(lp2002
S'HCDR3'
p2003
aS'148'
p2004
aF3915343.0414
aa(lp2005
S'HCDR3'
p2006
aS'413'
p2007
aF10000000001.550201
aa(lp2008
S'HCDR3'
p2009
aS'412'
p2010
aF9999999857.5775013
aa(lp2011
S'HCDR3'
p2012
aS'411'
p2013
aF9999999959.9116001
aa(lp2014
S'HCDR3'
p2015
aS'410'
p2016
aF10000000027.575701
aa(lp2017
S'HCDR3'
p2018
aS'141'
p2019
aF9999999995.4447002
aa(lp2020
S'HCDR3'
p2021
aS'416'
p2022
aF9999999659.3746014
aa(lp2023
S'HCDR3'
p2024
aS'143'
p2025
aF4222193075.5570998
aa(lp2026
S'HCDR3'
p2027
aS'142'
p2028
aF910637.8334
aa(lp2029
S'HV'
p2030
aS'44'
p2031
aF10000000101.301001
aa(lp2032
S'HV'
p2033
aS'45'
p2034
aF10000000100.324902
aa(lp2035
S'HV'
p2036
aS'46'
p2037
aF10000000090.324301
aa(lp2038
S'HCDR3'
p2039
aS'388'
p2040
aF10000000089.2686
aa(lp2041
S'HV'
p2042
aS'40'
p2043
aF1919702183.849
aa(lp2044
S'HV'
p2045
aS'41'
p2046
aF442158392.45899999
aa(lp2047
S'HV'
p2048
aS'42'
p2049
aF352944329.43940002
aa(lp2050
S'HV'
p2051
aS'43'
p2052
aF10000000069.221201
aa(lp2053
S'HCDR3'
p2054
aS'383'
p2055
aF10000000136.667501
aa(lp2056
S'HCDR3'
p2057
aS'382'
p2058
aF604165.37490000005
aa(lp2059
S'HCDR3'
p2060
aS'381'
p2061
aF10000000486.5923
aa(lp2062
S'HCDR3'
p2063
aS'380'
p2064
aF9999999993.575901
aa(lp2065
S'HCDR3'
p2066
aS'387'
p2067
aF9041733617.9618988
aa(lp2068
S'HCDR3'
p2069
aS'386'
p2070
aF9956674018.8400002
aa(lp2071
S'HCDR3'
p2072
aS'385'
p2073
aF1828564484.3047001
aa(lp2074
S'HCDR3'
p2075
aS'384'
p2076
aF251461143.3653
aa(lp2077
S'KCDR3'
p2078
aS'178'
p2079
aF0.11399999999999999
aa(lp2080
S'KCDR3'
p2081
aS'9'
aF0.52300000000000002
aa(lp2082
S'KCDR3'
p2083
aS'27'
p2084
aF0.048000000000000043
aa(lp2085
S'KCDR3'
p2086
aS'10'
p2087
aF0.11020000000000002
aa(lp2088
S'LV'
p2089
aS'28'
p2090
aF0.73270000000000002
aa(lp2091
S'LV'
p2092
aS'29'
p2093
aF0.78010000000000002
aa(lp2094
S'KCDR3'
p2095
aS'8'
aF-0.090799999999999992
aa(lp2096
S'HCDR3'
p2097
aS'246'
p2098
aF279609317.41259998
aa(lp2099
S'HCDR3'
p2100
aS'247'
p2101
aF9121113.3409000002
aa(lp2102
S'HCDR3'
p2103
aS'244'
p2104
aF50176579.316600002
aa(lp2105
S'HCDR3'
p2106
aS'245'
p2107
aF1462864686.3550999
aa(lp2108
S'HCDR3'
p2109
aS'242'
p2110
aF10000000112.196402
aa(lp2111
S'HCDR3'
p2112
aS'243'
p2113
aF216632512.46830001
aa(lp2114
S'HCDR3'
p2115
aS'240'
p2116
aF9999999991.5683002
aa(lp2117
S'HCDR3'
p2118
aS'241'
p2119
aF53622797.702200003
aa(lp2120
S'LV'
p2121
aS'32'
p2122
aF-1.4123000000000001
aa(lp2123
S'KCDR3'
p2124
aS'71'
p2125
aF0.62049999999999994
aa(lp2126
S'LV'
p2127
aS'24'
p2128
aF0.22560000000000002
aa(lp2129
S'HCDR3'
p2130
aS'248'
p2131
aF244353617.1952
aa(lp2132
S'HCDR3'
p2133
aS'249'
p2134
aF10000000038.485802
aa(lp2135
S'HCDR3'
p2136
aS'29'
p2137
aF597888.63800000004
aa(lp2138
S'HCDR3'
p2139
aS'28'
p2140
aF116466200.6841
aa(lp2141
S'LV'
p2142
aS'25'
p2143
aF0.35069999999999996
aa(lp2144
S'HCDR3'
p2145
aS'21'
p2146
aF8.3048000000000002
aa(lp2147
S'HCDR3'
p2148
aS'20'
p2149
aF1.4749999999999996
aa(lp2150
S'HCDR3'
p2151
aS'23'
p2152
aF1.2143000000000002
aa(lp2153
S'HCDR3'
p2154
aS'22'
p2155
aF0.61399999999999988
aa(lp2156
S'HCDR3'
p2157
aS'25'
p2158
aF12.837800000000001
aa(lp2159
S'HCDR3'
p2160
aS'24'
p2161
aF84.1584
aa(lp2162
S'HCDR3'
p2163
aS'27'
p2164
aF3.5433999999999992
aa(lp2165
S'HCDR3'
p2166
aS'26'
p2167
aF752898.93259999994
aa(lp2168
S'HV'
p2169
aS'139'
p2170
aF2388255890.1329999
aa(lp2171
S'HV'
p2172
aS'138'
p2173
aF9999999876.9969006
aa(lp2174
S'HV'
p2175
aS'135'
p2176
aF1194614225.273
aa(lp2177
S'HV'
p2178
aS'134'
p2179
aF8159056633.4439993
aa(lp2180
S'HV'
p2181
aS'137'
p2182
aF1249590056.4531
aa(lp2183
S'LV'
p2184
aS'21'
p2185
aF-7.0021999999999993
aa(lp2186
S'HV'
p2187
aS'131'
p2188
aF9999999976.6512012
aa(lp2189
S'HV'
p2190
aS'130'
p2191
aF9999999950.3885002
aa(lp2192
S'HV'
p2193
aS'133'
p2194
aF10000000155.925701
aa(lp2195
S'HV'
p2196
aS'132'
p2197
aF10000000098.850401
aa(lp2198
S'KV'
p2199
aS'54'
p2200
aF0.76629999999999998
aa(lp2201
S'KV'
p2202
aS'55'
p2203
aF-1.7990999999999999
aa(lp2204
S'KV'
p2205
aS'56'
p2206
aF-2.0922000000000001
aa(lp2207
S'KV'
p2208
aS'57'
p2209
aF-1.8262999999999998
aa(lp2210
S'KV'
p2211
aS'50'
p2212
aF-23.900199999999998
aa(lp2213
S'KV'
p2214
aS'51'
p2215
aF-3.0316000000000001
aa(lp2216
S'KV'
p2217
aS'52'
p2218
aF-3.1307999999999998
aa(lp2219
S'KV'
p2220
aS'53'
p2221
aF-0.66890000000000005
aa(lp2222
S'KV'
p2223
aS'58'
p2224
aF-1.9843000000000002
aa(lp2225
S'KV'
p2226
aS'59'
p2227
aF-4.1932999999999998
aa(lp2228
S'KCDR3'
p2229
aS'194'
p2230
aF-0.35219999999999996
aa(lp2231
S'KCDR3'
p2232
aS'48'
p2233
aF0.80640000000000001
aa(lp2234
S'KCDR3'
p2235
aS'49'
p2236
aF1.9961999999999998
aa(lp2237
S'KCDR3'
p2238
aS'46'
p2239
aF-2.4328000000000003
aa(lp2240
S'KCDR3'
p2241
aS'47'
p2242
aF0.442
aa(lp2243
S'KCDR3'
p2244
aS'44'
p2245
aF-0.18600000000000005
aa(lp2246
S'KCDR3'
p2247
aS'45'
p2248
aF1.0772999999999999
aa(lp2249
S'KCDR3'
p2250
aS'42'
p2251
aF0.5393
aa(lp2252
S'KCDR3'
p2253
aS'43'
p2254
aF1.2068999999999999
aa(lp2255
S'KCDR3'
p2256
aS'40'
p2257
aF0.56030000000000002
aa(lp2258
S'KCDR3'
p2259
aS'41'
p2260
aF0.93110000000000004
aa(lp2261
S'LV'
p2262
aS'18'
p2263
aF-3.4457
aa(lp2264
S'KCDR3'
p2265
aS'165'
p2266
aF-1.3582000000000001
aa(lp2267
S'HCDR3'
p2268
aS'361'
p2269
aF9999999953.1785011
aa(lp2270
S'KJ'
p2271
aS'4'
aF0.0407
aa(lp2272
S'HCDR3'
p2273
aS'360'
p2274
aF1205618128.7856002
aa(lp2275
S'KCDR3'
p2276
aS'186'
p2277
aF-10.427199999999999
aa(lp2278
S'KCDR3'
p2279
aS'75'
p2280
aF-1.2057
aa(lp2281
S'HCDR3'
p2282
aS'363'
p2283
aF9999999873.9061012
aa(lp2284
S'HCDR3'
p2285
aS'362'
p2286
aF9999999948.8112011
aa(lp2287
S'HCDR3'
p2288
aS'365'
p2289
aF10000000056.6005
aa(lp2290
S'HCDR3'
p2291
aS'364'
p2292
aF9999999925.9081001
aa(lp2293
S'KCDR3'
p2294
aS'129'
p2295
aF1.4219999999999999
aa(lp2296
S'HV'
p2297
aS'79'
p2298
aF9999999720.5220013
aa(lp2299
S'HV'
p2300
aS'78'
p2301
aF10000000113.989401
aa(lp2302
S'HV'
p2303
aS'75'
p2304
aF447289049.39640003
aa(lp2305
S'HV'
p2306
aS'74'
p2307
aF348019582.19739997
aa(lp2308
S'HV'
p2309
aS'77'
p2310
aF10000000124.3724
aa(lp2311
S'HV'
p2312
aS'76'
p2313
aF9999999938.9049015
aa(lp2314
S'HV'
p2315
aS'71'
p2316
aF10000000035.849201
aa(lp2317
S'HV'
p2318
aS'70'
p2319
aF10000000006.504501
aa(lp2320
S'HV'
p2321
aS'73'
p2322
aF9277164228.955101
aa(lp2323
S'HV'
p2324
aS'72'
p2325
aF10000000031.900002
aa(lp2326
S'HCDR3'
p2327
aS'389'
p2328
aF859849417.7263
aa(lp2329
S'KCDR3'
p2330
aS'187'
p2331
aF-9.787700000000001
aa(lp2332
S'KCDR3'
p2333
aS'184'
p2334
aF499.16879999999998
aa(lp2335
S'KCDR3'
p2336
aS'185'
p2337
aF1358672.2545999999
aa(lp2338
S'LCDR3'
p2339
aS'39'
p2340
aF1.4138999999999999
aa(lp2341
S'HCDR3'
p2342
aS'347'
p2343
aF5349986887.3780994
aa(lp2344
S'HCDR3'
p2345
aS'346'
p2346
aF9131015819.3395004
aa(lp2347
S'HCDR3'
p2348
aS'345'
p2349
aF1148463183.1424
aa(lp2350
S'HCDR3'
p2351
aS'344'
p2352
aF9999999811.6973
aa(lp2353
S'HCDR3'
p2354
aS'343'
p2355
aF10000000170.791302
aa(lp2356
S'HCDR3'
p2357
aS'342'
p2358
aF2898357283.6719999
aa(lp2359
S'HCDR3'
p2360
aS'341'
p2361
aF3067230616.0412998
aa(lp2362
S'HCDR3'
p2363
aS'340'
p2364
aF9999999855.275301
aa(lp2365
S'HCDR3'
p2366
aS'349'
p2367
aF10000000065.078402
aa(lp2368
S'HCDR3'
p2369
aS'348'
p2370
aF10000000161.7334
aa(lp2371
S'LCDR3'
p2372
aS'1'
aF-1.9588999999999999
aa(lp2373
S'KCDR3'
p2374
aS'148'
p2375
aF-0.29359999999999997
aa(lp2376
S'KCDR3'
p2377
aS'149'
p2378
aF1.1084000000000001
aa(lp2379
S'KCDR3'
p2380
aS'142'
p2381
aF1.625
aa(lp2382
S'KCDR3'
p2383
aS'143'
p2384
aF0.26779999999999998
aa(lp2385
S'KCDR3'
p2386
aS'140'
p2387
aF0.70310000000000006
aa(lp2388
S'KCDR3'
p2389
aS'141'
p2390
aF1.4398
aa(lp2391
S'KCDR3'
p2392
aS'146'
p2393
aF-0.30369999999999997
aa(lp2394
S'KCDR3'
p2395
aS'147'
p2396
aF1.6633999999999998
aa(lp2397
S'KCDR3'
p2398
aS'144'
p2399
aF-0.16409999999999997
aa(lp2400
S'KCDR3'
p2401
aS'145'
p2402
aF0.49219999999999997
aa(lp2403
S'HCDR3'
p2404
aS'282'
p2405
aF510208765.37720001
aa(lp2406
S'HCDR3'
p2407
aS'283'
p2408
aF2924282886.6664
aa(lp2409
S'HCDR3'
p2410
aS'280'
p2411
aF9999999851.0398006
aa(lp2412
S'HCDR3'
p2413
aS'281'
p2414
aF7966748.3386000004
aa(lp2415
S'HCDR3'
p2416
aS'286'
p2417
aF782510534.96800005
aa(lp2418
S'HCDR3'
p2419
aS'287'
p2420
aF6869131290.1690006
aa(lp2421
S'HCDR3'
p2422
aS'284'
p2423
aF10000000059.5464
aa(lp2424
S'HCDR3'
p2425
aS'285'
p2426
aF10000000072.229801
aa(lp2427
S'HCDR3'
p2428
aS'288'
p2429
aF9999999850.4096012
aa(lp2430
S'HCDR3'
p2431
aS'289'
p2432
aF4193008513.3763003
aa(lp2433
S'HV'
p2434
aS'24'
p2435
aF310410800.67330003
aa(lp2436
S'HCDR3'
p2437
aS'112'
p2438
aF5.3443000000000005
aa(lp2439
S'HCDR3'
p2440
aS'113'
p2441
aF1368138.9662000001
aa(lp2442
S'HCDR3'
p2443
aS'110'
p2444
aF9.0912000000000006
aa(lp2445
S'HCDR3'
p2446
aS'111'
p2447
aF49495.9427
aa(lp2448
S'HCDR3'
p2449
aS'116'
p2450
aF155.7191
aa(lp2451
S'HCDR3'
p2452
aS'117'
p2453
aF16.082699999999999
aa(lp2454
S'HCDR3'
p2455
aS'114'
p2456
aF20.933
aa(lp2457
S'HCDR3'
p2458
aS'115'
p2459
aF46.4084
aa(lp2460
S'KCDR3'
p2461
aS'125'
p2462
aF0.2419
aa(lp2463
S'HCDR3'
p2464
aS'118'
p2465
aF9999999954.8523006
aa(lp2466
S'HCDR3'
p2467
aS'119'
p2468
aF247785444.2816
aa(lp2469
S'HCDR3'
p2470
aS'65'
p2471
aF3738694582.8035002
aa(lp2472
S'HCDR3'
p2473
aS'64'
p2474
aF9999999981.4162006
aa(lp2475
S'HCDR3'
p2476
aS'67'
p2477
aF9777.2878000000001
aa(lp2478
S'HCDR3'
p2479
aS'66'
p2480
aF61367.0795
aa(lp2481
S'HCDR3'
p2482
aS'61'
p2483
aF19983743.1734
aa(lp2484
S'HCDR3'
p2485
aS'60'
p2486
aF167018854.9598
aa(lp2487
S'HCDR3'
p2488
aS'63'
p2489
aF1032457966.8427
aa(lp2490
S'HCDR3'
p2491
aS'62'
p2492
aF9999999998.7490005
aa(lp2493
S'LV'
p2494
aS'13'
p2495
aF1.0858999999999999
aa(lp2496
S'LV'
p2497
aS'12'
p2498
aF-1.2828999999999999
aa(lp2499
S'LV'
p2500
aS'11'
p2501
aF-0.26619999999999999
aa(lp2502
S'LV'
p2503
aS'10'
p2504
aF0.74229999999999996
aa(lp2505
S'HCDR3'
p2506
aS'69'
p2507
aF19.862099999999998
aa(lp2508
S'HCDR3'
p2509
aS'68'
p2510
aF1794.4585
aa(lp2511
S'LV'
p2512
aS'15'
p2513
aF1.1172
aa(lp2514
S'LV'
p2515
aS'14'
p2516
aF-2.27
aa(lp2517
S'HCDR3'
p2518
aS'300'
p2519
aF3998.6309000000001
aa(lp2520
S'KJ'
p2521
aS'3'
aF0.0407
aa(lp2522
S'KV'
p2523
aS'18'
p2524
aF-1.4859
aa(lp2525
S'KV'
p2526
aS'19'
p2527
aF-0.88530000000000009
aa(lp2528
S'KV'
p2529
aS'10'
p2530
aF0.99030000000000007
aa(lp2531
S'KV'
p2532
aS'11'
p2533
aF1.4589999999999999
aa(lp2534
S'KV'
p2535
aS'12'
p2536
aF1.3977999999999999
aa(lp2537
S'KV'
p2538
aS'13'
p2539
aF-4.0374999999999996
aa(lp2540
S'KV'
p2541
aS'14'
p2542
aF-4.0681000000000003
aa(lp2543
S'KV'
p2544
aS'15'
p2545
aF5.0772000000000004
aa(lp2546
S'KV'
p2547
aS'16'
p2548
aF1.2022000000000002
aa(lp2549
S'KV'
p2550
aS'17'
p2551
aF-1.4540999999999999
aa(lp2552
S'LV'
p2553
aS'38'
p2554
aF-4.2385000000000002
aa(lp2555
S'KCDR3'
p2556
aS'39'
p2557
aF0.94330000000000003
aa(lp2558
S'HCDR3'
p2559
aS'239'
p2560
aF10000000035.351801
aa(lp2561
S'HCDR3'
p2562
aS'238'
p2563
aF10000000040.9762
aa(lp2564
S'HCDR3'
p2565
aS'237'
p2566
aF751.73590000000002
aa(lp2567
S'HCDR3'
p2568
aS'236'
p2569
aF1643074423.1837001
aa(lp2570
S'HCDR3'
p2571
aS'235'
p2572
aF267010424.1938
aa(lp2573
S'HCDR3'
p2574
aS'234'
p2575
aF259668.10519999999
aa(lp2576
S'HCDR3'
p2577
aS'233'
p2578
aF225719916.64720002
aa(lp2579
S'HCDR3'
p2580
aS'232'
p2581
aF1785752563.4018998
aa(lp2582
S'HCDR3'
p2583
aS'231'
p2584
aF7283.4179999999997
aa(lp2585
S'HCDR3'
p2586
aS'230'
p2587
aF9999999769.637701
aa(lp2588
S'HCDR3'
p2589
aS'308'
p2590
aF9999999935.4574013
aa(lp2591
S'HCDR3'
p2592
aS'10'
p2593
aF21709585.7335
aa(lp2594
S'HCDR3'
p2595
aS'11'
p2596
aF1577041.9584999999
aa(lp2597
S'HCDR3'
p2598
aS'12'
p2599
aF531709.826
aa(lp2600
S'HCDR3'
p2601
aS'13'
p2602
aF2429119.4675999996
aa(lp2603
S'HCDR3'
p2604
aS'14'
p2605
aF2869885.1285000001
aa(lp2606
S'HCDR3'
p2607
aS'15'
p2608
aF64120.085099999997
aa(lp2609
S'HCDR3'
p2610
aS'16'
p2611
aF15.6326
aa(lp2612
S'HCDR3'
p2613
aS'17'
p2614
aF707341.29200000002
aa(lp2615
S'HCDR3'
p2616
aS'18'
p2617
aF100.10939999999999
aa(lp2618
S'HCDR3'
p2619
aS'19'
p2620
aF23278.0013
aa(lp2621
S'KCDR3'
p2622
aS'110'
p2623
aF1.1802999999999999
aa(lp2624
S'HCDR3'
p2625
aS'81'
p2626
aF283037796.72359997
aa(lp2627
S'KCDR3'
p2628
aS'199'
p2629
aF-0.68250000000000011
aa(lp2630
S'KV'
p2631
aS'65'
p2632
aF-0.48039999999999999
aa(lp2633
S'KV'
p2634
aS'64'
p2635
aF-3.0551000000000004
aa(lp2636
S'KV'
p2637
aS'67'
p2638
aF12.935600000000001
aa(lp2639
S'KV'
p2640
aS'66'
p2641
aF-4.1280000000000001
aa(lp2642
S'KV'
p2643
aS'61'
p2644
aF-1.5377000000000001
aa(lp2645
S'KV'
p2646
aS'60'
p2647
aF-1.5764999999999998
aa(lp2648
S'KV'
p2649
aS'63'
p2650
aF-2.0146999999999999
aa(lp2651
S'KV'
p2652
aS'62'
p2653
aF-4.1360000000000001
aa(lp2654
S'LV'
p2655
aS'35'
p2656
aF-0.95400000000000007
aa(lp2657
S'HCDR3'
p2658
aS'303'
p2659
aF10000000297.452101
aa(lp2660
S'HCDR3'
p2661
aS'302'
p2662
aF10000000018.4228
aa(lp2663
S'HCDR3'
p2664
aS'89'
p2665
aF2788.9096999999997
aa(lp2666
S'HCDR3'
p2667
aS'88'
p2668
aF12842067.604800001
aa(lp2669
S'HCDR3'
p2670
aS'307'
p2671
aF359.88130000000001
aa(lp2672
S'HCDR3'
p2673
aS'306'
p2674
aF10000000049.747501
aa(lp2675
S'HCDR3'
p2676
aS'305'
p2677
aF9999999994.7579002
aa(lp2678
S'HCDR3'
p2679
aS'304'
p2680
aF10000000156.7819
aa(lp2681
S'HCDR3'
p2682
aS'83'
p2683
aF1743.5945999999999
aa(lp2684
S'HCDR3'
p2685
aS'82'
p2686
aF52330.709900000002
aa(lp2687
S'HCDR3'
p2688
aS'309'
p2689
aF6155769013.6703005
aa(lp2690
S'HCDR3'
p2691
aS'80'
p2692
aF37145.380499999999
aa(lp2693
S'HCDR3'
p2694
aS'87'
p2695
aF10351.512499999999
aa(lp2696
S'HCDR3'
p2697
aS'86'
p2698
aF1203303.0611
aa(lp2699
S'HCDR3'
p2700
aS'85'
p2701
aF37.039500000000004
aa(lp2702
S'HCDR3'
p2703
aS'84'
p2704
aF969497.5871
aa.