(lp1
(lp2
S'KCDR3'
p3
aS'84'
p4
aF3.6322000000000001
aa(lp5
S'KCDR3'
p6
aS'85'
p7
aF-44.697199999999995
aa(lp8
S'KCDR3'
p9
aS'106'
p10
aF30.781299999999998
aa(lp11
S'KCDR3'
p12
aS'107'
p13
aF-8.0435999999999996
aa(lp14
S'KCDR3'
p15
aS'104'
p16
aF-28.628800000000002
aa(lp17
S'KCDR3'
p18
aS'105'
p19
aF-19.152699999999999
aa(lp20
S'KCDR3'
p21
aS'102'
p22
aF-9.8660999999999994
aa(lp23
S'KCDR3'
p24
aS'103'
p25
aF-2.7534999999999998
aa(lp26
S'KCDR3'
p27
aS'100'
p28
aF-21.6389
aa(lp29
S'KCDR3'
p30
aS'195'
p31
aF-7.2691999999999997
aa(lp32
S'KCDR3'
p33
aS'88'
p34
aF32367211.643599998
aa(lp35
S'KCDR3'
p36
aS'108'
p37
aF-14.2684
aa(lp38
S'KCDR3'
p39
aS'109'
p40
aF-10.4346
aa(lp41
S'KCDR3'
p42
aS'89'
p43
aF-9.8155000000000001
aa(lp44
S'HCDR3'
p45
aS'408'
p46
aF10000000387.563501
aa(lp47
S'HCDR3'
p48
aS'409'
p49
aF4618004575.8119001
aa(lp50
S'HCDR3'
p51
aS'158'
p52
aF10000000147.4557
aa(lp53
S'HCDR3'
p54
aS'159'
p55
aF10000000002.392
aa(lp56
S'HCDR3'
p57
aS'404'
p58
aF10000000405.6383
aa(lp59
S'HCDR3'
p60
aS'405'
p61
aF9999999672.3007011
aa(lp62
S'HCDR3'
p63
aS'406'
p64
aF9999999995.0583
aa(lp65
S'HCDR3'
p66
aS'407'
p67
aF365798286.43950003
aa(lp68
S'HCDR3'
p69
aS'400'
p70
aF9999999904.6711006
aa(lp71
S'HCDR3'
p72
aS'153'
p73
aF9999999764.0060005
aa(lp74
S'HCDR3'
p75
aS'402'
p76
aF9999999864.0263004
aa(lp77
S'HCDR3'
p78
aS'151'
p79
aF8582157208.2581997
aa(lp80
S'HV'
p81
aS'31'
p82
aF9999999960.5976009
aa(lp83
S'HV'
p84
aS'30'
p85
aF9999999974.8173008
aa(lp86
S'HV'
p87
aS'33'
p88
aF772678.02449999994
aa(lp89
S'HV'
p90
aS'32'
p91
aF9999999970.9330006
aa(lp92
S'HV'
p93
aS'35'
p94
aF1612493.1573000001
aa(lp95
S'HV'
p96
aS'34'
p97
aF2444547.9480000003
aa(lp98
S'HV'
p99
aS'37'
p100
aF3233427741.4921999
aa(lp101
S'HV'
p102
aS'36'
p103
aF3220830760.2210999
aa(lp104
S'HV'
p105
aS'39'
p106
aF10000000148.156601
aa(lp107
S'HV'
p108
aS'38'
p109
aF2938461215.7269001
aa(lp110
S'HCDR3'
p111
aS'396'
p112
aF9999999734.9406013
aa(lp113
S'HCDR3'
p114
aS'397'
p115
aF10000000305.906601
aa(lp116
S'HCDR3'
p117
aS'390'
p118
aF10000001014.188002
aa(lp119
S'HCDR3'
p120
aS'391'
p121
aF10000000006.353901
aa(lp122
S'HCDR3'
p123
aS'392'
p124
aF10000000253.0294
aa(lp125
S'HCDR3'
p126
aS'393'
p127
aF10000000449.742201
aa(lp128
S'KCDR3'
p129
aS'197'
p130
aF-5.7719000000000005
aa(lp131
S'HCDR3'
p132
aS'279'
p133
aF10000000039.418301
aa(lp134
S'HCDR3'
p135
aS'278'
p136
aF9999999874.6444016
aa(lp137
S'HCDR3'
p138
aS'273'
p139
aF3027190986.4408998
aa(lp140
S'HCDR3'
p141
aS'272'
p142
aF9999999959.4225006
aa(lp143
S'HCDR3'
p144
aS'271'
p145
aF327246240.76460004
aa(lp146
S'HCDR3'
p147
aS'270'
p148
aF189093156.62199998
aa(lp149
S'HCDR3'
p150
aS'277'
p151
aF10000000067.752901
aa(lp152
S'HCDR3'
p153
aS'276'
p154
aF10000000357.335901
aa(lp155
S'HCDR3'
p156
aS'275'
p157
aF9999999693.4708004
aa(lp158
S'HCDR3'
p159
aS'274'
p160
aF10000000093.660702
aa(lp161
S'KCDR3'
p162
aS'196'
p163
aF-10.0848
aa(lp164
S'LV'
p165
aS'33'
p166
aF37.361400000000003
aa(lp167
S'LCDR3'
p168
aS'17'
p169
aF-0.5282
aa(lp170
S'HCDR3'
p171
aS'58'
p172
aF90990784.875200003
aa(lp173
S'HCDR3'
p174
aS'30'
p175
aF62.5777
aa(lp176
S'HCDR3'
p177
aS'54'
p178
aF7917669242.4504004
aa(lp179
S'HCDR3'
p180
aS'55'
p181
aF2322.1283000000003
aa(lp182
S'HCDR3'
p183
aS'56'
p184
aF3795212870.3346
aa(lp185
S'HCDR3'
p186
aS'57'
p187
aF1249234351.1877
aa(lp188
S'HCDR3'
p189
aS'50'
p190
aF299294226.15999997
aa(lp191
S'HCDR3'
p192
aS'51'
p193
aF9999999833.6812
aa(lp194
S'HCDR3'
p195
aS'52'
p196
aF10000000033.5618
aa(lp197
S'HCDR3'
p198
aS'53'
p199
aF51509.1976
aa(lp200
S'HV'
p201
aS'108'
p202
aF3080737.7461000001
aa(lp203
S'HV'
p204
aS'109'
p205
aF3190837.5444
aa(lp206
S'HV'
p207
aS'100'
p208
aF7151588564.9500999
aa(lp209
S'HV'
p210
aS'101'
p211
aF3611293757.0327997
aa(lp212
S'HV'
p213
aS'102'
p214
aF10000000044.273201
aa(lp215
S'HV'
p216
aS'103'
p217
aF2210368.8462
aa(lp218
S'HV'
p219
aS'104'
p220
aF3384674.0521
aa(lp221
S'HV'
p222
aS'105'
p223
aF2835633.6247999999
aa(lp224
S'HV'
p225
aS'106'
p226
aF2202966.6109000002
aa(lp227
S'HV'
p228
aS'107'
p229
aF2248087.2974
aa(lp230
S'KV'
p231
aS'21'
p232
aF225.83000000000001
aa(lp233
S'KV'
p234
aS'20'
p235
aF171.41030000000001
aa(lp236
S'KV'
p237
aS'23'
p238
aF153.69300000000001
aa(lp239
S'KV'
p240
aS'22'
p241
aF211.95099999999999
aa(lp242
S'KV'
p243
aS'25'
p244
aF173.89060000000001
aa(lp245
S'HCDR3'
p246
aS'49'
p247
aF9999999996.6069012
aa(lp248
S'KV'
p249
aS'27'
p250
aF14.591100000000001
aa(lp251
S'KV'
p252
aS'29'
p253
aF260.04180000000002
aa(lp254
S'KV'
p255
aS'28'
p256
aF222.67420000000001
aa(lp257
S'HV'
p258
aS'110'
p259
aF1238171.0806
aa(lp260
S'KCDR3'
p261
aS'190'
p262
aF2506056.3619000004
aa(lp263
S'KCDR3'
p264
aS'51'
p265
aF-25.0061
aa(lp266
S'KCDR3'
p267
aS'50'
p268
aF-3.5857000000000001
aa(lp269
S'KCDR3'
p270
aS'53'
p271
aF1360.4312
aa(lp272
S'KCDR3'
p273
aS'52'
p274
aF-24.256300000000003
aa(lp275
S'KCDR3'
p276
aS'55'
p277
aF-6.6604000000000001
aa(lp278
S'HCDR3'
p279
aS'38'
p280
aF386827215.95990002
aa(lp281
S'KCDR3'
p282
aS'57'
p283
aF11.069800000000001
aa(lp284
S'KCDR3'
p285
aS'56'
p286
aF3090105.4616
aa(lp287
S'KCDR3'
p288
aS'59'
p289
aF6.6818
aa(lp290
S'KCDR3'
p291
aS'58'
p292
aF1631332.8214
aa(lp293
S'HCDR3'
p294
aS'39'
p295
aF115481937.2862
aa(lp296
S'LV'
p297
aS'37'
p298
aF43.003099999999996
aa(lp299
S'LCDR3'
p300
aS'11'
p301
aF41.353800000000007
aa(lp302
S'KCDR3'
p303
aS'54'
p304
aF-10.399999999999999
aa(lp305
S'LV'
p306
aS'36'
p307
aF34.670999999999999
aa(lp308
S'LV'
p309
aS'31'
p310
aF-45.617100000000001
aa(lp311
S'KCDR3'
p312
aS'193'
p313
aF-6.1038999999999994
aa(lp314
S'LCDR3'
p315
aS'27'
p316
aF4238241.1949999994
aa(lp317
S'LV'
p318
aS'30'
p319
aF4872534.0318
aa(lp320
S'HCDR3'
p321
aS'41'
p322
aF8268005213.4839001
aa(lp323
S'HCDR3'
p324
aS'40'
p325
aF19471098.8972
aa(lp326
S'KCDR3'
p327
aS'192'
p328
aF6021.7551999999996
aa(lp329
S'HCDR3'
p330
aS'156'
p331
aF4015007366.9552999
aa(lp332
S'HCDR3'
p333
aS'157'
p334
aF10000000337.2924
aa(lp335
S'KCDR3'
p336
aS'65'
p337
aF-7.5655000000000001
aa(lp338
S'HCDR3'
p339
aS'154'
p340
aF9999999953.7904015
aa(lp341
S'HCDR3'
p342
aS'155'
p343
aF9999999926.4406013
aa(lp344
S'HV'
p345
aS'68'
p346
aF1855.7725
aa(lp347
S'HV'
p348
aS'69'
p349
aF1915.6284000000001
aa(lp350
S'HV'
p351
aS'66'
p352
aF1884.9589999999998
aa(lp353
S'HV'
p354
aS'67'
p355
aF2918.9256999999998
aa(lp356
S'HV'
p357
aS'64'
p358
aF35452158.401900001
aa(lp359
S'HV'
p360
aS'65'
p361
aF445485030.7256
aa(lp362
S'HV'
p363
aS'62'
p364
aF5059829.2357999999
aa(lp365
S'HV'
p366
aS'63'
p367
aF32829693.073200002
aa(lp368
S'HV'
p369
aS'60'
p370
aF294169.01630000002
aa(lp371
S'HV'
p372
aS'61'
p373
aF8561208754.6590996
aa(lp374
S'HCDR3'
p375
aS'150'
p376
aF9999999972.9091015
aa(lp377
S'HCDR3'
p378
aS'403'
p379
aF10000000023.505001
aa(lp380
S'HCDR3'
p381
aS'358'
p382
aF9999999897.9686012
aa(lp383
S'HCDR3'
p384
aS'359'
p385
aF10000000027.2964
aa(lp386
S'HCDR3'
p387
aS'350'
p388
aF9999999978.9951
aa(lp389
S'HCDR3'
p390
aS'351'
p391
aF9999999974.6457005
aa(lp392
S'HCDR3'
p393
aS'352'
p394
aF10000000881.192202
aa(lp395
S'HCDR3'
p396
aS'353'
p397
aF10000000063.5795
aa(lp398
S'HCDR3'
p399
aS'354'
p400
aF9999999719.0181999
aa(lp401
S'HCDR3'
p402
aS'355'
p403
aF10000000071.230801
aa(lp404
S'HCDR3'
p405
aS'356'
p406
aF9999999822.6504002
aa(lp407
S'HCDR3'
p408
aS'357'
p409
aF9999999724.2536011
aa(lp410
S'KCDR3'
p411
aS'78'
p412
aF-2.8087999999999997
aa(lp413
S'HCDR3'
p414
aS'398'
p415
aF10000000081.133301
aa(lp416
S'HCDR3'
p417
aS'399'
p418
aF10000000411.410301
aa(lp419
S'HJ'
p420
aS'5'
aF-3.2974999999999999
aa(lp421
S'HJ'
p422
aS'4'
aF-3.4087999999999998
aa(lp423
S'HJ'
p424
aS'3'
aF-3.4183999999999997
aa(lp425
S'HJ'
p426
aS'2'
aF-3.3441000000000001
aa(lp427
S'HJ'
p428
aS'1'
aF-3.3449
aa(lp429
S'LJ'
p430
aS'6'
aF-3.3799999999999999
aa(lp431
S'KCDR3'
p432
aS'82'
p433
aF-10.8116
aa(lp434
S'HCDR3'
p435
aS'394'
p436
aF10000000183.805901
aa(lp437
S'KCDR3'
p438
aS'80'
p439
aF48862.069500000005
aa(lp440
S'KCDR3'
p441
aS'81'
p442
aF-36.936900000000001
aa(lp443
S'KCDR3'
p444
aS'86'
p445
aF-18.9529
aa(lp446
S'KCDR3'
p447
aS'87'
p448
aF-2.3089000000000004
aa(lp449
S'KCDR3'
p450
aS'179'
p451
aF-0.35090000000000021
aa(lp452
S'HCDR3'
p453
aS'395'
p454
aF10000000099.305901
aa(lp455
S'KCDR3'
p456
aS'191'
p457
aF9999999997.1766014
aa(lp458
S'KCDR3'
p459
aS'176'
p460
aF-0.69280000000000008
aa(lp461
S'KCDR3'
p462
aS'175'
p463
aF-5.7413999999999996
aa(lp464
S'KCDR3'
p465
aS'174'
p466
aF4.0688000000000004
aa(lp467
S'KCDR3'
p468
aS'173'
p469
aF-6.9873000000000003
aa(lp470
S'KCDR3'
p471
aS'172'
p472
aF-5.5314000000000005
aa(lp473
S'KCDR3'
p474
aS'171'
p475
aF2.6457000000000006
aa(lp476
S'KCDR3'
p477
aS'170'
p478
aF22.033200000000001
aa(lp479
S'KCDR3'
p480
aS'70'
p481
aF0.29470000000000018
aa(lp482
S'KCDR3'
p483
aS'77'
p484
aF1.8920000000000003
aa(lp485
S'KCDR3'
p486
aS'76'
p487
aF-0.42309999999999981
aa(lp488
S'HCDR3'
p489
aS'127'
p490
aF10000000165.704601
aa(lp491
S'HCDR3'
p492
aS'126'
p493
aF2268899993.7592001
aa(lp494
S'HCDR3'
p495
aS'125'
p496
aF10000000082.106001
aa(lp497
S'HCDR3'
p498
aS'124'
p499
aF9999999890.2818012
aa(lp500
S'HCDR3'
p501
aS'123'
p502
aF3535359511.8926997
aa(lp503
S'HCDR3'
p504
aS'122'
p505
aF341063333.03740001
aa(lp506
S'HCDR3'
p507
aS'121'
p508
aF9999999896.3407001
aa(lp509
S'HCDR3'
p510
aS'120'
p511
aF10000000004.963301
aa(lp512
S'KCDR3'
p513
aS'74'
p514
aF4.7221000000000011
aa(lp515
S'HCDR3'
p516
aS'425'
p517
aF10000000280.6138
aa(lp518
S'HCDR3'
p519
aS'129'
p520
aF10000000500.937601
aa(lp521
S'HCDR3'
p522
aS'128'
p523
aF3116005298.2827001
aa(lp524
S'HCDR3'
p525
aS'301'
p526
aF9999999918.1361008
aa(lp527
S'HV'
p528
aS'140'
p529
aF13529052.018100001
aa(lp530
S'HV'
p531
aS'141'
p532
aF12778192.6897
aa(lp533
S'KCDR3'
p534
aS'24'
p535
aF7664826.5932999998
aa(lp536
S'HV'
p537
aS'9'
aF5203346.8544000005
aa(lp538
S'HV'
p539
aS'8'
aF9999999838.9012012
aa(lp540
S'KCDR3'
p541
aS'19'
p542
aF783167.45539999998
aa(lp543
S'KCDR3'
p544
aS'18'
p545
aF10000000029.647701
aa(lp546
S'KCDR3'
p547
aS'25'
p548
aF-1.7418999999999998
aa(lp549
S'HV'
p550
aS'3'
aF49105.733
aa(lp551
S'HV'
p552
aS'2'
aF11763563.831
aa(lp553
S'HV'
p554
aS'1'
aF16927145.382799998
aa(lp555
S'KCDR3'
p556
aS'16'
p557
aF247.4254
aa(lp558
S'HV'
p559
aS'7'
aF53894.652600000001
aa(lp560
S'HV'
p561
aS'6'
aF4052471.8890999998
aa(lp562
S'HV'
p563
aS'5'
aF3981902.6913000001
aa(lp564
S'HV'
p565
aS'4'
aF4486692.4489000002
aa(lp566
S'HCDR3'
p567
aS'220'
p568
aF3832259744.3265004
aa(lp569
S'HCDR3'
p570
aS'221'
p571
aF10000000029.9657
aa(lp572
S'HCDR3'
p573
aS'222'
p574
aF9999999985.4377003
aa(lp575
S'HCDR3'
p576
aS'223'
p577
aF10000000379.308201
aa(lp578
S'HCDR3'
p579
aS'224'
p580
aF9999999904.197401
aa(lp581
S'HCDR3'
p582
aS'225'
p583
aF4033602478.6311002
aa(lp584
S'HCDR3'
p585
aS'226'
p586
aF9999999827.8501015
aa(lp587
S'HCDR3'
p588
aS'227'
p589
aF10000000395.213902
aa(lp590
S'HCDR3'
p591
aS'228'
p592
aF10000000016.8612
aa(lp593
S'HCDR3'
p594
aS'229'
p595
aF3061650863.0002003
aa(lp596
S'KCDR3'
p597
aS'83'
p598
aF-10.303599999999999
aa(lp599
S'LCDR3'
p600
aS'32'
p601
aF-1.0215999999999994
aa(lp602
S'LCDR3'
p603
aS'33'
p604
aF-6.5716999999999999
aa(lp605
S'LCDR3'
p606
aS'30'
p607
aF-0.3970999999999999
aa(lp608
S'LCDR3'
p609
aS'31'
p610
aF-1.1114999999999999
aa(lp611
S'LCDR3'
p612
aS'36'
p613
aF6.3666
aa(lp614
S'LV'
p615
aS'9'
aF0.83050000000000002
aa(lp616
S'LCDR3'
p617
aS'34'
p618
aF0.29910000000000014
aa(lp619
S'LCDR3'
p620
aS'35'
p621
aF10.4925
aa(lp622
S'KCDR3'
p623
aS'28'
p624
aF6428039.2520000003
aa(lp625
S'LCDR3'
p626
aS'38'
p627
aF346583.85330000002
aa(lp628
S'LV'
p629
aS'8'
aF55.369599999999998
aa(lp630
S'KCDR3'
p631
aS'29'
p632
aF-5.0989000000000004
aa(lp633
S'KCDR3'
p634
aS'68'
p635
aF-4.1238000000000001
aa(lp636
S'HCDR3'
p637
aS'90'
p638
aF4647131893.5030003
aa(lp639
S'HCDR3'
p640
aS'91'
p641
aF10000000000.6567
aa(lp642
S'KCDR3'
p643
aS'60'
p644
aF-13.9697
aa(lp645
S'KCDR3'
p646
aS'61'
p647
aF3835.2945
aa(lp648
S'KCDR3'
p649
aS'62'
p650
aF1.2515000000000001
aa(lp651
S'KCDR3'
p652
aS'63'
p653
aF782.58410000000003
aa(lp654
S'KCDR3'
p655
aS'64'
p656
aF-12.8424
aa(lp657
S'HCDR3'
p658
aS'92'
p659
aF260154.2132
aa(lp660
S'KCDR3'
p661
aS'66'
p662
aF480.35910000000001
aa(lp663
S'KCDR3'
p664
aS'67'
p665
aF4952.3591999999999
aa(lp666
S'HCDR3'
p667
aS'93'
p668
aF10000000078.310701
aa(lp669
S'HCDR3'
p670
aS'332'
p671
aF3083454321.3732004
aa(lp672
S'HCDR3'
p673
aS'333'
p674
aF10000000025.186901
aa(lp675
S'LCDR3'
p676
aS'8'
aF-2.5297000000000001
aa(lp677
S'LCDR3'
p678
aS'9'
aF-0.44209999999999999
aa(lp679
S'HCDR3'
p680
aS'330'
p681
aF10000000227.081701
aa(lp682
S'LCDR3'
p683
aS'2'
aF621.55029999999999
aa(lp684
S'LCDR3'
p685
aS'3'
aF1243.3133
aa(lp686
S'HCDR3'
p687
aS'97'
p688
aF10000000161.3915
aa(lp689
S'LCDR3'
p690
aS'6'
aF-1.6400999999999999
aa(lp691
S'LCDR3'
p692
aS'7'
aF7033357563.5853004
aa(lp693
S'LCDR3'
p694
aS'4'
aF-3.2760000000000002
aa(lp695
S'LCDR3'
p696
aS'5'
aF-8.0557999999999996
aa(lp697
S'HCDR3'
p698
aS'314'
p699
aF9999999894.5587006
aa(lp700
S'HCDR3'
p701
aS'315'
p702
aF2888414928.2461996
aa(lp703
S'HCDR3'
p704
aS'316'
p705
aF10000000008.396601
aa(lp706
S'HCDR3'
p707
aS'317'
p708
aF9999999796.7674999
aa(lp709
S'HCDR3'
p710
aS'310'
p711
aF10000000318.536901
aa(lp712
S'HCDR3'
p713
aS'311'
p714
aF9999999902.8590012
aa(lp715
S'HCDR3'
p716
aS'312'
p717
aF9999999960.8829002
aa(lp718
S'HCDR3'
p719
aS'313'
p720
aF6914396775.1592999
aa(lp721
S'KCDR3'
p722
aS'198'
p723
aF147019515.6936
aa(lp724
S'HCDR3'
p725
aS'318'
p726
aF9999999905.3175011
aa(lp727
S'HCDR3'
p728
aS'319'
p729
aF10000000112.988701
aa(lp730
S'LV'
p731
aS'19'
p732
aF29.319800000000001
aa(lp733
S'HV'
p734
aS'97'
p735
aF10000000040.7612
aa(lp736
S'HV'
p737
aS'96'
p738
aF10000000091.374001
aa(lp739
S'HV'
p740
aS'95'
p741
aF10000000175.730202
aa(lp742
S'HV'
p743
aS'94'
p744
aF10000000108.347
aa(lp745
S'HV'
p746
aS'93'
p747
aF28645205.482000001
aa(lp748
S'HV'
p749
aS'92'
p750
aF2041408684.76
aa(lp751
S'HV'
p752
aS'91'
p753
aF802503223.81009996
aa(lp754
S'HV'
p755
aS'90'
p756
aF693721345.1401
aa(lp757
S'KCDR3'
p758
aS'133'
p759
aF78579106.404300004
aa(lp760
S'KCDR3'
p761
aS'132'
p762
aF-5.1283999999999992
aa(lp763
S'KCDR3'
p764
aS'131'
p765
aF24359829.765300002
aa(lp766
S'KCDR3'
p767
aS'130'
p768
aF-12.4986
aa(lp769
S'KCDR3'
p770
aS'137'
p771
aF2896015.1858000001
aa(lp772
S'KCDR3'
p773
aS'136'
p774
aF1478923.3097999999
aa(lp775
S'HV'
p776
aS'99'
p777
aF755095264.87440002
aa(lp778
S'HV'
p779
aS'98'
p780
aF10000000039.003302
aa(lp781
S'HCDR3'
p782
aS'31'
p783
aF10000000014.051201
aa(lp784
S'KCDR3'
p785
aS'134'
p786
aF-0.7894000000000001
aa(lp787
S'HCDR3'
p788
aS'163'
p789
aF9999999959.9967003
aa(lp790
S'HCDR3'
p791
aS'162'
p792
aF9999999882.0797005
aa(lp793
S'HCDR3'
p794
aS'161'
p795
aF204190580.69659999
aa(lp796
S'HCDR3'
p797
aS'160'
p798
aF12770228.014700001
aa(lp799
S'HCDR3'
p800
aS'167'
p801
aF9999999971.9712009
aa(lp802
S'HCDR3'
p803
aS'166'
p804
aF9999999748.7588005
aa(lp805
S'HCDR3'
p806
aS'165'
p807
aF10000000017.400301
aa(lp808
S'HCDR3'
p809
aS'164'
p810
aF9999999888.0279007
aa(lp811
S'HCDR3'
p812
aS'169'
p813
aF9999999942.4279003
aa(lp814
S'HCDR3'
p815
aS'168'
p816
aF9999999888.385601
aa(lp817
S'HV'
p818
aS'22'
p819
aF9999999994.4055004
aa(lp820
S'HV'
p821
aS'23'
p822
aF10000000019.2759
aa(lp823
S'HV'
p824
aS'20'
p825
aF2034862.9375999998
aa(lp826
S'HV'
p827
aS'21'
p828
aF2633991845.1264
aa(lp829
S'HV'
p830
aS'26'
p831
aF10000000004.2327
aa(lp832
S'HV'
p833
aS'27'
p834
aF9999999992.5116005
aa(lp835
S'HCDR3'
p836
aS'367'
p837
aF9999999891.4622002
aa(lp838
S'HV'
p839
aS'25'
p840
aF9999999969.0530014
aa(lp841
S'HCDR3'
p842
aS'369'
p843
aF9999999708.7927017
aa(lp844
S'HCDR3'
p845
aS'368'
p846
aF9999999747.4500008
aa(lp847
S'HV'
p848
aS'28'
p849
aF9999999981.0944004
aa(lp850
S'HV'
p851
aS'29'
p852
aF9999999972.3083
aa(lp853
S'KCDR3'
p854
aS'182'
p855
aF11.641399999999999
aa(lp856
S'KCDR3'
p857
aS'183'
p858
aF2.2096999999999998
aa(lp859
S'KCDR3'
p860
aS'180'
p861
aF-1.3466
aa(lp862
S'KCDR3'
p863
aS'181'
p864
aF0.67920000000000025
aa(lp865
S'HCDR3'
p866
aS'189'
p867
aF10000000020.865702
aa(lp868
S'HCDR3'
p869
aS'188'
p870
aF9999999983.5792007
aa(lp871
S'HCDR3'
p872
aS'181'
p873
aF10000000022.5429
aa(lp874
S'HCDR3'
p875
aS'180'
p876
aF9999999962.1285
aa(lp877
S'HCDR3'
p878
aS'183'
p879
aF9999999949.3083
aa(lp880
S'HCDR3'
p881
aS'182'
p882
aF9999999998.8488007
aa(lp883
S'HCDR3'
p884
aS'185'
p885
aF9999999928.5200005
aa(lp886
S'HCDR3'
p887
aS'184'
p888
aF736808893.12449992
aa(lp889
S'HCDR3'
p890
aS'187'
p891
aF227816491.82609999
aa(lp892
S'HCDR3'
p893
aS'186'
p894
aF10000000238.691
aa(lp895
S'HCDR3'
p896
aS'268'
p897
aF47786116.147500001
aa(lp898
S'HCDR3'
p899
aS'269'
p900
aF10000000051.512402
aa(lp901
S'HCDR3'
p902
aS'264'
p903
aF5412111026.0747004
aa(lp904
S'HCDR3'
p905
aS'265'
p906
aF10000000115.807701
aa(lp907
S'HCDR3'
p908
aS'266'
p909
aF9999999982.3959007
aa(lp910
S'HCDR3'
p911
aS'267'
p912
aF9999999995.6254005
aa(lp913
S'HCDR3'
p914
aS'260'
p915
aF10000000146.233101
aa(lp916
S'HCDR3'
p917
aS'261'
p918
aF665563096.51480007
aa(lp919
S'HCDR3'
p920
aS'262'
p921
aF9999999854.2569008
aa(lp922
S'HCDR3'
p923
aS'263'
p924
aF3425675429.6353002
aa(lp925
S'LV'
p926
aS'34'
p927
aF34.144599999999997
aa(lp928
S'HCDR3'
p929
aS'366'
p930
aF10000000091.539501
aa(lp931
S'HV'
p932
aS'117'
p933
aF23137538.4641
aa(lp934
S'HV'
p935
aS'116'
p936
aF36616.388500000001
aa(lp937
S'HV'
p938
aS'115'
p939
aF407031.96830000001
aa(lp940
S'HV'
p941
aS'114'
p942
aF1964841353.6529
aa(lp943
S'HV'
p944
aS'113'
p945
aF4554616556.0299997
aa(lp946
S'HV'
p947
aS'112'
p948
aF10000000043.404701
aa(lp949
S'HV'
p950
aS'111'
p951
aF1822165987.6784
aa(lp952
S'HCDR3'
p953
aS'48'
p954
aF32325648.873300001
aa(lp955
S'HCDR3'
p956
aS'47'
p957
aF2880483699.6546001
aa(lp958
S'HCDR3'
p959
aS'46'
p960
aF9999999822.4568005
aa(lp961
S'HCDR3'
p962
aS'45'
p963
aF10000000008.358501
aa(lp964
S'HCDR3'
p965
aS'44'
p966
aF3808817625.0552998
aa(lp967
S'HCDR3'
p968
aS'43'
p969
aF30171259.526799999
aa(lp970
S'HCDR3'
p971
aS'42'
p972
aF339401420.59810001
aa(lp973
S'HV'
p974
aS'119'
p975
aF22782091.657499999
aa(lp976
S'HV'
p977
aS'118'
p978
aF12519659.663600001
aa(lp979
S'KV'
p980
aS'32'
p981
aF3219.5481
aa(lp982
S'KV'
p983
aS'33'
p984
aF32616.920299999998
aa(lp985
S'KV'
p986
aS'30'
p987
aF246.27260000000001
aa(lp988
S'KV'
p989
aS'31'
p990
aF250.3381
aa(lp991
S'KV'
p992
aS'36'
p993
aF2419.2012
aa(lp994
S'KV'
p995
aS'37'
p996
aF27.4679
aa(lp997
S'KV'
p998
aS'34'
p999
aF14.6046
aa(lp1000
S'KV'
p1001
aS'35'
p1002
aF30.143599999999999
aa(lp1003
S'KV'
p1004
aS'38'
p1005
aF2040.5664000000002
aa(lp1006
S'KV'
p1007
aS'39'
p1008
aF88219.404899999994
aa(lp1009
S'KCDR3'
p1010
aS'117'
p1011
aF10000000632.659401
aa(lp1012
S'HCDR3'
p1013
aS'219'
p1014
aF9999999960.4304008
aa(lp1015
S'HCDR3'
p1016
aS'218'
p1017
aF9999999953.2828007
aa(lp1018
S'KCDR3'
p1019
aS'26'
p1020
aF-4.4276
aa(lp1021
S'KCDR3'
p1022
aS'116'
p1023
aF8.1077999999999992
aa(lp1024
S'KCDR3'
p1025
aS'20'
p1026
aF-6.2704000000000004
aa(lp1027
S'KCDR3'
p1028
aS'21'
p1029
aF503.5994
aa(lp1030
S'KCDR3'
p1031
aS'22'
p1032
aF57.746699999999997
aa(lp1033
S'KCDR3'
p1034
aS'23'
p1035
aF1.2204999999999999
aa(lp1036
S'HCDR3'
p1037
aS'211'
p1038
aF10000000086.4519
aa(lp1039
S'HCDR3'
p1040
aS'210'
p1041
aF9999999926.9252014
aa(lp1042
S'HCDR3'
p1043
aS'213'
p1044
aF10000000032.7185
aa(lp1045
S'HCDR3'
p1046
aS'212'
p1047
aF9999999825.0223007
aa(lp1048
S'HCDR3'
p1049
aS'215'
p1050
aF9999999865.8424015
aa(lp1051
S'HCDR3'
p1052
aS'214'
p1053
aF904488252.44440007
aa(lp1054
S'HCDR3'
p1055
aS'217'
p1056
aF10000000253.6406
aa(lp1057
S'HCDR3'
p1058
aS'216'
p1059
aF352554181.81010002
aa(lp1060
S'KCDR3'
p1061
aS'92'
p1062
aF-9.3933999999999997
aa(lp1063
S'KCDR3'
p1064
aS'128'
p1065
aF3.4409999999999989
aa(lp1066
S'HCDR3'
p1067
aS'59'
p1068
aF60350574.000999995
aa(lp1069
S'KCDR3'
p1070
aS'119'
p1071
aF-5.3371999999999993
aa(lp1072
S'KCDR3'
p1073
aS'118'
p1074
aF80499077.535000011
aa(lp1075
S'KCDR3'
p1076
aS'124'
p1077
aF-4.3286999999999995
aa(lp1078
S'HCDR3'
p1079
aS'8'
aF8458276.9130999986
aa(lp1080
S'HCDR3'
p1081
aS'9'
aF141285405.51459998
aa(lp1082
S'HCDR3'
p1083
aS'6'
aF14114286.9398
aa(lp1084
S'HCDR3'
p1085
aS'7'
aF14.899800000000003
aa(lp1086
S'HCDR3'
p1087
aS'4'
aF-4.3955000000000002
aa(lp1088
S'HCDR3'
p1089
aS'5'
aF2346014.642
aa(lp1090
S'HCDR3'
p1091
aS'2'
aF-1.8496000000000001
aa(lp1092
S'HCDR3'
p1093
aS'3'
aF138.77789999999999
aa(lp1094
S'HCDR3'
p1095
aS'1'
aF-7.9938000000000002
aa(lp1096
S'KCDR3'
p1097
aS'1'
aF-0.012800000000000034
aa(lp1098
S'HV'
p1099
aS'59'
p1100
aF291136.28769999999
aa(lp1101
S'HV'
p1102
aS'58'
p1103
aF10000000394.444801
aa(lp1104
S'KCDR3'
p1105
aS'5'
aF-4
aa(lp1106
S'KCDR3'
p1107
aS'4'
aF3.6487000000000003
aa(lp1108
S'KCDR3'
p1109
aS'7'
aF-1.7815000000000003
aa(lp1110
S'KCDR3'
p1111
aS'6'
aF10.851599999999999
aa(lp1112
S'HV'
p1113
aS'53'
p1114
aF121360786.3951
aa(lp1115
S'HV'
p1116
aS'52'
p1117
aF140997026.4991
aa(lp1118
S'HV'
p1119
aS'51'
p1120
aF116529171.96869999
aa(lp1121
S'HV'
p1122
aS'50'
p1123
aF255474885.05450001
aa(lp1124
S'HV'
p1125
aS'57'
p1126
aF330963846.55420005
aa(lp1127
S'HV'
p1128
aS'56'
p1129
aF286940560.06460005
aa(lp1130
S'HV'
p1131
aS'55'
p1132
aF114373846.0344
aa(lp1133
S'HV'
p1134
aS'54'
p1135
aF296353171.17759997
aa(lp1136
S'LCDR3'
p1137
aS'37'
p1138
aF15761886.5975
aa(lp1139
S'HCDR3'
p1140
aS'329'
p1141
aF9999999933.8135014
aa(lp1142
S'HCDR3'
p1143
aS'328'
p1144
aF10000000393.412001
aa(lp1145
S'HCDR3'
p1146
aS'325'
p1147
aF9999999837.5034008
aa(lp1148
S'HCDR3'
p1149
aS'324'
p1150
aF9999999798.0811005
aa(lp1151
S'HCDR3'
p1152
aS'327'
p1153
aF9999999587.3487015
aa(lp1154
S'HCDR3'
p1155
aS'326'
p1156
aF9999999929.4465008
aa(lp1157
S'HCDR3'
p1158
aS'321'
p1159
aF545955516.03439999
aa(lp1160
S'HCDR3'
p1161
aS'320'
p1162
aF9999999743.0199013
aa(lp1163
S'HCDR3'
p1164
aS'323'
p1165
aF10000000013.825001
aa(lp1166
S'HCDR3'
p1167
aS'322'
p1168
aF9999999843.8118
aa(lp1169
S'HCDR3'
p1170
aS'145'
p1171
aF9999999890.8134003
aa(lp1172
S'HCDR3'
p1173
aS'144'
p1174
aF9999999918.4807014
aa(lp1175
S'HCDR3'
p1176
aS'147'
p1177
aF538079156.00919998
aa(lp1178
S'HCDR3'
p1179
aS'146'
p1180
aF10000000173.449902
aa(lp1181
S'HCDR3'
p1182
aS'417'
p1183
aF10000000184.9909
aa(lp1184
S'KCDR3'
p1185
aS'35'
p1186
aF-5.8034999999999997
aa(lp1187
S'KCDR3'
p1188
aS'3'
aF-1.0396000000000001
aa(lp1189
S'HCDR3'
p1190
aS'140'
p1191
aF9999999608.156601
aa(lp1192
S'KCDR3'
p1193
aS'160'
p1194
aF-8.4635999999999996
aa(lp1195
S'KCDR3'
p1196
aS'161'
p1197
aF9.7540999999999993
aa(lp1198
S'KCDR3'
p1199
aS'162'
p1200
aF-4.9679000000000002
aa(lp1201
S'KCDR3'
p1202
aS'96'
p1203
aF-2.8485
aa(lp1204
S'KCDR3'
p1205
aS'164'
p1206
aF-7.5147000000000004
aa(lp1207
S'HCDR3'
p1208
aS'415'
p1209
aF2559145170.7509999
aa(lp1210
S'KCDR3'
p1211
aS'93'
p1212
aF-6.8302999999999994
aa(lp1213
S'KCDR3'
p1214
aS'167'
p1215
aF-4.7912999999999997
aa(lp1216
S'KCDR3'
p1217
aS'168'
p1218
aF19.451799999999999
aa(lp1219
S'KCDR3'
p1220
aS'169'
p1221
aF-12.217200000000002
aa(lp1222
S'HCDR3'
p1223
aS'414'
p1224
aF9999999735.0181007
aa(lp1225
S'KCDR3'
p1226
aS'99'
p1227
aF-12.563499999999999
aa(lp1228
S'KCDR3'
p1229
aS'98'
p1230
aF-8.2562999999999995
aa(lp1231
S'HCDR3'
p1232
aS'138'
p1233
aF9999999933.2846012
aa(lp1234
S'HCDR3'
p1235
aS'139'
p1236
aF9999999918.6132011
aa(lp1237
S'KCDR3'
p1238
aS'69'
p1239
aF-9.5466999999999995
aa(lp1240
S'HCDR3'
p1241
aS'130'
p1242
aF10000000142.705601
aa(lp1243
S'HCDR3'
p1244
aS'131'
p1245
aF10000000043.863401
aa(lp1246
S'HCDR3'
p1247
aS'132'
p1248
aF9455897751.1851006
aa(lp1249
S'HCDR3'
p1250
aS'133'
p1251
aF9999999817.6127014
aa(lp1252
S'HCDR3'
p1253
aS'134'
p1254
aF9999999876.0761013
aa(lp1255
S'HCDR3'
p1256
aS'135'
p1257
aF125961991.55499999
aa(lp1258
S'HCDR3'
p1259
aS'136'
p1260
aF9999999989.6707001
aa(lp1261
S'HCDR3'
p1262
aS'137'
p1263
aF9999999934.4936008
aa(lp1264
S'HCDR3'
p1265
aS'426'
p1266
aF10000000237.395102
aa(lp1267
S'HCDR3'
p1268
aS'427'
p1269
aF10000000644.7794
aa(lp1270
S'HCDR3'
p1271
aS'424'
p1272
aF10000000405.9762
aa(lp1273
S'HV'
p1274
aS'47'
p1275
aF151074773.1735
aa(lp1276
S'HCDR3'
p1277
aS'422'
p1278
aF9999999316.2329006
aa(lp1279
S'HCDR3'
p1280
aS'423'
p1281
aF9999999916.1710014
aa(lp1282
S'HCDR3'
p1283
aS'420'
p1284
aF9999999604.7052002
aa(lp1285
S'HCDR3'
p1286
aS'421'
p1287
aF10000000120.7845
aa(lp1288
S'HCDR3'
p1289
aS'428'
p1290
aF9999999964.217001
aa(lp1291
S'LV'
p1292
aS'17'
p1293
aF-12.606299999999997
aa(lp1294
S'LV'
p1295
aS'16'
p1296
aF10.864799999999999
aa(lp1297
S'KV'
p1298
aS'24'
p1299
aF228.4119
aa(lp1300
S'KCDR3'
p1301
aS'14'
p1302
aF-2.3237000000000005
aa(lp1303
S'LV'
p1304
aS'7'
aF3.1692999999999998
aa(lp1305
S'HV'
p1306
aS'48'
p1307
aF93033756.278099999
aa(lp1308
S'HV'
p1309
aS'49'
p1310
aF282594403.56239998
aa(lp1311
S'HCDR3'
p1312
aS'255'
p1313
aF10000000022.581202
aa(lp1314
S'HCDR3'
p1315
aS'254'
p1316
aF382392552.22689998
aa(lp1317
S'HCDR3'
p1318
aS'257'
p1319
aF9999999189.8762016
aa(lp1320
S'HCDR3'
p1321
aS'256'
p1322
aF10000000016.386101
aa(lp1323
S'HCDR3'
p1324
aS'251'
p1325
aF3394081325.9200001
aa(lp1326
S'HCDR3'
p1327
aS'250'
p1328
aF10000000172.675402
aa(lp1329
S'HCDR3'
p1330
aS'253'
p1331
aF10000000263.67
aa(lp1332
S'HCDR3'
p1333
aS'252'
p1334
aF3854679055.6240997
aa(lp1335
S'HCDR3'
p1336
aS'259'
p1337
aF10000000067.692301
aa(lp1338
S'HCDR3'
p1339
aS'258'
p1340
aF10000000089.1278
aa(lp1341
S'KCDR3'
p1342
aS'11'
p1343
aF1.5169999999999995
aa(lp1344
S'HCDR3'
p1345
aS'36'
p1346
aF147283522.222
aa(lp1347
S'HCDR3'
p1348
aS'37'
p1349
aF192256.6728
aa(lp1350
S'HCDR3'
p1351
aS'34'
p1352
aF5233064920.6406002
aa(lp1353
S'HCDR3'
p1354
aS'35'
p1355
aF44494976.857600003
aa(lp1356
S'HCDR3'
p1357
aS'32'
p1358
aF10000000009.803501
aa(lp1359
S'HCDR3'
p1360
aS'33'
p1361
aF721371170.90509999
aa(lp1362
S'HV'
p1363
aS'128'
p1364
aF10000000046.471901
aa(lp1365
S'HV'
p1366
aS'129'
p1367
aF9999999917.5057011
aa(lp1368
S'HV'
p1369
aS'126'
p1370
aF6002429645.3624001
aa(lp1371
S'HV'
p1372
aS'127'
p1373
aF1948001965.5216
aa(lp1374
S'HV'
p1375
aS'124'
p1376
aF10000000051.050701
aa(lp1377
S'HV'
p1378
aS'125'
p1379
aF10000000050.663502
aa(lp1380
S'HV'
p1381
aS'122'
p1382
aF10985931.0941
aa(lp1383
S'HV'
p1384
aS'123'
p1385
aF40597225.089299999
aa(lp1386
S'HV'
p1387
aS'120'
p1388
aF14296961.8488
aa(lp1389
S'HV'
p1390
aS'121'
p1391
aF21766606.7546
aa(lp1392
S'LCDR3'
p1393
aS'25'
p1394
aF-3.8338999999999999
aa(lp1395
S'LCDR3'
p1396
aS'24'
p1397
aF-0.20869999999999989
aa(lp1398
S'LV'
p1399
aS'5'
aF11.381
aa(lp1400
S'LCDR3'
p1401
aS'26'
p1402
aF9.5579999999999998
aa(lp1403
S'LCDR3'
p1404
aS'21'
p1405
aF-1.1860999999999999
aa(lp1406
S'LCDR3'
p1407
aS'20'
p1408
aF-2.9279999999999999
aa(lp1409
S'LCDR3'
p1410
aS'23'
p1411
aF-0.83009999999999984
aa(lp1412
S'LCDR3'
p1413
aS'22'
p1414
aF0.049300000000000122
aa(lp1415
S'LCDR3'
p1416
aS'29'
p1417
aF0.46869999999999967
aa(lp1418
S'LCDR3'
p1419
aS'28'
p1420
aF6.8041
aa(lp1421
S'KV'
p1422
aS'49'
p1423
aF5712.7488999999996
aa(lp1424
S'KV'
p1425
aS'48'
p1426
aF1254.2098000000001
aa(lp1427
S'KV'
p1428
aS'43'
p1429
aF582.28210000000001
aa(lp1430
S'KCDR3'
p1431
aS'72'
p1432
aF-14.614599999999999
aa(lp1433
S'KV'
p1434
aS'41'
p1435
aF3092.5816
aa(lp1436
S'KV'
p1437
aS'40'
p1438
aF294.82009999999997
aa(lp1439
S'KV'
p1440
aS'47'
p1441
aF220290.34170000002
aa(lp1442
S'KV'
p1443
aS'46'
p1444
aF1923.7905000000001
aa(lp1445
S'KV'
p1446
aS'45'
p1447
aF18240.297900000001
aa(lp1448
S'KV'
p1449
aS'44'
p1450
aF-82.498999999999995
aa(lp1451
S'HCDR3'
p1452
aS'374'
p1453
aF224567813.4244
aa(lp1454
S'HV'
p1455
aS'18'
p1456
aF1135766331.1303
aa(lp1457
S'LV'
p1458
aS'3'
aF55.381700000000002
aa(lp1459
S'HV'
p1460
aS'15'
p1461
aF3738239876.6001
aa(lp1462
S'HCDR3'
p1463
aS'379'
p1464
aF9999999928.1633015
aa(lp1465
S'KJ'
p1466
aS'1'
aF-3.3706999999999998
aa(lp1467
S'LV'
p1468
aS'2'
aF56.254399999999997
aa(lp1469
S'KJ'
p1470
aS'2'
aF-3.3944999999999999
aa(lp1471
S'HV'
p1472
aS'80'
p1473
aF1327589066.1859
aa(lp1474
S'HV'
p1475
aS'81'
p1476
aF757729.44949999999
aa(lp1477
S'HV'
p1478
aS'82'
p1479
aF281797.37890000001
aa(lp1480
S'HV'
p1481
aS'83'
p1482
aF2084347.5219000001
aa(lp1483
S'HV'
p1484
aS'84'
p1485
aF5750.0472999999993
aa(lp1486
S'HV'
p1487
aS'85'
p1488
aF5658.5847999999996
aa(lp1489
S'HV'
p1490
aS'86'
p1491
aF7645.7480999999998
aa(lp1492
S'HV'
p1493
aS'87'
p1494
aF3484637.2097999998
aa(lp1495
S'HV'
p1496
aS'88'
p1497
aF3197144.4945999999
aa(lp1498
S'HV'
p1499
aS'89'
p1500
aF48021601.954599999
aa(lp1501
S'KCDR3'
p1502
aS'126'
p1503
aF-1.5477000000000003
aa(lp1504
S'KCDR3'
p1505
aS'127'
p1506
aF-7.4565999999999999
aa(lp1507
S'KCDR3'
p1508
aS'120'
p1509
aF-7.2553999999999998
aa(lp1510
S'KCDR3'
p1511
aS'121'
p1512
aF-4.3206999999999995
aa(lp1513
S'KCDR3'
p1514
aS'122'
p1515
aF-6.5276000000000005
aa(lp1516
S'KCDR3'
p1517
aS'123'
p1518
aF2.1086999999999998
aa(lp1519
S'LV'
p1520
aS'1'
aF4.2070999999999996
aa(lp1521
S'HCDR3'
p1522
aS'174'
p1523
aF10000000042.6383
aa(lp1524
S'HCDR3'
p1525
aS'175'
p1526
aF10000000039.3188
aa(lp1527
S'HCDR3'
p1528
aS'176'
p1529
aF10000000141.903
aa(lp1530
S'HCDR3'
p1531
aS'177'
p1532
aF5162147746.7116003
aa(lp1533
S'HCDR3'
p1534
aS'170'
p1535
aF3902814.6359999999
aa(lp1536
S'HCDR3'
p1537
aS'171'
p1538
aF9999999967.9315014
aa(lp1539
S'HCDR3'
p1540
aS'172'
p1541
aF1202309836.2601001
aa(lp1542
S'HCDR3'
p1543
aS'173'
p1544
aF9999999950.7306004
aa(lp1545
S'KCDR3'
p1546
aS'34'
p1547
aF0.69629999999999992
aa(lp1548
S'HCDR3'
p1549
aS'178'
p1550
aF6908353754.9258003
aa(lp1551
S'HCDR3'
p1552
aS'179'
p1553
aF10000000037.2141
aa(lp1554
S'HCDR3'
p1555
aS'372'
p1556
aF3895978935.4755998
aa(lp1557
S'HCDR3'
p1558
aS'373'
p1559
aF8204015751.2163
aa(lp1560
S'HCDR3'
p1561
aS'370'
p1562
aF9999999845.8794003
aa(lp1563
S'HCDR3'
p1564
aS'371'
p1565
aF9999999984.5847015
aa(lp1566
S'HCDR3'
p1567
aS'376'
p1568
aF10000000054.4342
aa(lp1569
S'HCDR3'
p1570
aS'377'
p1571
aF10000000080.0203
aa(lp1572
S'HV'
p1573
aS'19'
p1574
aF1058968644.7501
aa(lp1575
S'HCDR3'
p1576
aS'375'
p1577
aF9999999885.275301
aa(lp1578
S'HV'
p1579
aS'17'
p1580
aF3489981.3078000001
aa(lp1581
S'HV'
p1582
aS'16'
p1583
aF2897315389.5195003
aa(lp1584
S'HCDR3'
p1585
aS'378'
p1586
aF9999999991.3116016
aa(lp1587
S'HV'
p1588
aS'14'
p1589
aF1573785120.8188
aa(lp1590
S'HV'
p1591
aS'13'
p1592
aF8546817.966500001
aa(lp1593
S'HV'
p1594
aS'12'
p1595
aF2778794675.8133001
aa(lp1596
S'HV'
p1597
aS'11'
p1598
aF1089018485.1024001
aa(lp1599
S'HV'
p1600
aS'10'
p1601
aF10185313.789199999
aa(lp1602
S'HCDR3'
p1603
aS'198'
p1604
aF10000000039.557402
aa(lp1605
S'HCDR3'
p1606
aS'199'
p1607
aF10000000022.895802
aa(lp1608
S'HCDR3'
p1609
aS'192'
p1610
aF10000000536.566801
aa(lp1611
S'HCDR3'
p1612
aS'193'
p1613
aF6604741247.4583998
aa(lp1614
S'HCDR3'
p1615
aS'190'
p1616
aF1512200845.6429
aa(lp1617
S'HCDR3'
p1618
aS'191'
p1619
aF1838511457.1506999
aa(lp1620
S'HCDR3'
p1621
aS'196'
p1622
aF1055525378.0438
aa(lp1623
S'HCDR3'
p1624
aS'197'
p1625
aF10000000085.917101
aa(lp1626
S'HCDR3'
p1627
aS'194'
p1628
aF10000000204.601101
aa(lp1629
S'HCDR3'
p1630
aS'195'
p1631
aF9999999960.8289013
aa(lp1632
S'KCDR3'
p1633
aS'159'
p1634
aF-7.1204999999999998
aa(lp1635
S'KCDR3'
p1636
aS'158'
p1637
aF20.112500000000001
aa(lp1638
S'KCDR3'
p1639
aS'151'
p1640
aF0.76469999999999994
aa(lp1641
S'KCDR3'
p1642
aS'150'
p1643
aF311.06669999999997
aa(lp1644
S'KCDR3'
p1645
aS'153'
p1646
aF410786892.31449997
aa(lp1647
S'KCDR3'
p1648
aS'152'
p1649
aF1564317640.3400002
aa(lp1650
S'KCDR3'
p1651
aS'155'
p1652
aF4.048
aa(lp1653
S'KCDR3'
p1654
aS'154'
p1655
aF312822350.95370001
aa(lp1656
S'KCDR3'
p1657
aS'157'
p1658
aF8.0366
aa(lp1659
S'KCDR3'
p1660
aS'156'
p1661
aF2.7767999999999997
aa(lp1662
S'HCDR3'
p1663
aS'291'
p1664
aF9999999856.7437
aa(lp1665
S'HCDR3'
p1666
aS'290'
p1667
aF1316558561.1450999
aa(lp1668
S'HCDR3'
p1669
aS'293'
p1670
aF10000000073.034801
aa(lp1671
S'HCDR3'
p1672
aS'292'
p1673
aF188187239.07660002
aa(lp1674
S'HCDR3'
p1675
aS'295'
p1676
aF9999999934.776001
aa(lp1677
S'HCDR3'
p1678
aS'294'
p1679
aF9999999796.2695999
aa(lp1680
S'HCDR3'
p1681
aS'297'
p1682
aF7818062557.8971004
aa(lp1683
S'HCDR3'
p1684
aS'296'
p1685
aF10000000021.0324
aa(lp1686
S'HCDR3'
p1687
aS'299'
p1688
aF10000000044.614801
aa(lp1689
S'HCDR3'
p1690
aS'298'
p1691
aF10000000219.7015
aa(lp1692
S'HCDR3'
p1693
aS'101'
p1694
aF9999999917.6148014
aa(lp1695
S'HCDR3'
p1696
aS'100'
p1697
aF18236238.7086
aa(lp1698
S'HCDR3'
p1699
aS'103'
p1700
aF10000000005.961401
aa(lp1701
S'HCDR3'
p1702
aS'102'
p1703
aF9999999914.882
aa(lp1704
S'HCDR3'
p1705
aS'105'
p1706
aF9999999909.7786007
aa(lp1707
S'HCDR3'
p1708
aS'104'
p1709
aF61064576.663899995
aa(lp1710
S'HCDR3'
p1711
aS'107'
p1712
aF5584952365.2939997
aa(lp1713
S'HCDR3'
p1714
aS'106'
p1715
aF10000000813.500801
aa(lp1716
S'HCDR3'
p1717
aS'109'
p1718
aF642310344.49680007
aa(lp1719
S'HCDR3'
p1720
aS'108'
p1721
aF9999999972.6768017
aa(lp1722
S'HCDR3'
p1723
aS'72'
p1724
aF841243080.50779998
aa(lp1725
S'HCDR3'
p1726
aS'73'
p1727
aF9999999912.5712013
aa(lp1728
S'HCDR3'
p1729
aS'70'
p1730
aF9999999858.3414001
aa(lp1731
S'HCDR3'
p1732
aS'71'
p1733
aF123027633.0518
aa(lp1734
S'HCDR3'
p1735
aS'76'
p1736
aF5004831616.9506998
aa(lp1737
S'HCDR3'
p1738
aS'77'
p1739
aF2053217123.3487
aa(lp1740
S'HCDR3'
p1741
aS'74'
p1742
aF10000000052.767101
aa(lp1743
S'HCDR3'
p1744
aS'75'
p1745
aF9999999970.8530006
aa(lp1746
S'LV'
p1747
aS'26'
p1748
aF35.440300000000001
aa(lp1749
S'LV'
p1750
aS'27'
p1751
aF114.2376
aa(lp1752
S'HCDR3'
p1753
aS'78'
p1754
aF9999999999.4633007
aa(lp1755
S'HCDR3'
p1756
aS'79'
p1757
aF1381421612.7834001
aa(lp1758
S'LV'
p1759
aS'22'
p1760
aF-7.9444999999999997
aa(lp1761
S'LV'
p1762
aS'23'
p1763
aF468.55920000000003
aa(lp1764
S'LV'
p1765
aS'20'
p1766
aF30.214300000000001
aa(lp1767
S'KCDR3'
p1768
aS'73'
p1769
aF-30.782400000000003
aa(lp1770
S'KCDR3'
p1771
aS'38'
p1772
aF-4.1579999999999995
aa(lp1773
S'HCDR3'
p1774
aS'152'
p1775
aF9999999945.1599007
aa(lp1776
S'KCDR3'
p1777
aS'13'
p1778
aF-11.830300000000001
aa(lp1779
S'KCDR3'
p1780
aS'177'
p1781
aF-5.4348999999999998
aa(lp1782
S'KCDR3'
p1783
aS'37'
p1784
aF-1.8030999999999997
aa(lp1785
S'KCDR3'
p1786
aS'36'
p1787
aF-1.1045
aa(lp1788
S'HCDR3'
p1789
aS'208'
p1790
aF10000000084.997101
aa(lp1791
S'HCDR3'
p1792
aS'209'
p1793
aF753133524.24319994
aa(lp1794
S'KCDR3'
p1795
aS'33'
p1796
aF-5.8693999999999997
aa(lp1797
S'KCDR3'
p1798
aS'32'
p1799
aF-10.1677
aa(lp1800
S'KCDR3'
p1801
aS'31'
p1802
aF9.6584000000000003
aa(lp1803
S'KCDR3'
p1804
aS'30'
p1805
aF-11.962
aa(lp1806
S'HCDR3'
p1807
aS'202'
p1808
aF10000000130.380901
aa(lp1809
S'HCDR3'
p1810
aS'203'
p1811
aF10000000061.888201
aa(lp1812
S'HCDR3'
p1813
aS'200'
p1814
aF9999999968.0567017
aa(lp1815
S'HCDR3'
p1816
aS'201'
p1817
aF9999999945.1022015
aa(lp1818
S'HCDR3'
p1819
aS'206'
p1820
aF6834937225.7999001
aa(lp1821
S'HCDR3'
p1822
aS'207'
p1823
aF5402352216.3149004
aa(lp1824
S'HCDR3'
p1825
aS'204'
p1826
aF9999999917.2576008
aa(lp1827
S'HCDR3'
p1828
aS'205'
p1829
aF9999999689.218401
aa(lp1830
S'KJ'
p1831
aS'5'
aF-3.3380000000000001
aa(lp1832
S'KCDR3'
p1833
aS'79'
p1834
aF-6.5778999999999996
aa(lp1835
S'HCDR3'
p1836
aS'401'
p1837
aF10000000083.7313
aa(lp1838
S'KCDR3'
p1839
aS'95'
p1840
aF-9.9915000000000003
aa(lp1841
S'LCDR3'
p1842
aS'18'
p1843
aF1.8808999999999998
aa(lp1844
S'LCDR3'
p1845
aS'19'
p1846
aF0.87460000000000004
aa(lp1847
S'KCDR3'
p1848
aS'94'
p1849
aF-4.1872999999999996
aa(lp1850
S'LCDR3'
p1851
aS'14'
p1852
aF0.084899999999999975
aa(lp1853
S'LCDR3'
p1854
aS'15'
p1855
aF19.012
aa(lp1856
S'LCDR3'
p1857
aS'16'
p1858
aF-2.3336999999999999
aa(lp1859
S'LV'
p1860
aS'4'
aF62.989100000000008
aa(lp1861
S'LCDR3'
p1862
aS'10'
p1863
aF-1.1574
aa(lp1864
S'KCDR3'
p1865
aS'97'
p1866
aF-13.295400000000001
aa(lp1867
S'LCDR3'
p1868
aS'12'
p1869
aF4206.2581
aa(lp1870
S'LCDR3'
p1871
aS'13'
p1872
aF1798.0518999999999
aa(lp1873
S'KCDR3'
p1874
aS'163'
p1875
aF-5.4955999999999996
aa(lp1876
S'KCDR3'
p1877
aS'91'
p1878
aF-2.9360999999999997
aa(lp1879
S'KCDR3'
p1880
aS'2'
aF7.3357999999999999
aa(lp1881
S'KCDR3'
p1882
aS'188'
p1883
aF244353153.1083
aa(lp1884
S'KCDR3'
p1885
aS'90'
p1886
aF-7.3670999999999998
aa(lp1887
S'KCDR3'
p1888
aS'15'
p1889
aF4.4564000000000004
aa(lp1890
S'KCDR3'
p1891
aS'166'
p1892
aF0.73469999999999991
aa(lp1893
S'LJ'
p1894
aS'3'
aF-3.3740999999999999
aa(lp1895
S'LJ'
p1896
aS'2'
aF-3.3846000000000003
aa(lp1897
S'LJ'
p1898
aS'1'
aF-3.3669000000000002
aa(lp1899
S'KCDR3'
p1900
aS'189'
p1901
aF101227104.4306
aa(lp1902
S'LJ'
p1903
aS'7'
aF-3.3738000000000001
aa(lp1904
S'KCDR3'
p1905
aS'139'
p1906
aF-8.8267999999999986
aa(lp1907
S'LJ'
p1908
aS'5'
aF-3.3939999999999997
aa(lp1909
S'LJ'
p1910
aS'4'
aF-3.3790999999999998
aa(lp1911
S'KCDR3'
p1912
aS'138'
p1913
aF2.2020999999999997
aa(lp1914
S'HCDR3'
p1915
aS'98'
p1916
aF9999999992.8473015
aa(lp1917
S'HCDR3'
p1918
aS'99'
p1919
aF6956112261.1366997
aa(lp1920
S'HCDR3'
p1921
aS'338'
p1922
aF10000000166.5762
aa(lp1923
S'HCDR3'
p1924
aS'339'
p1925
aF3906548524.8462
aa(lp1926
S'HCDR3'
p1927
aS'336'
p1928
aF10000000412.243502
aa(lp1929
S'HCDR3'
p1930
aS'337'
p1931
aF9999999971.3306007
aa(lp1932
S'HCDR3'
p1933
aS'334'
p1934
aF9999999870.8527012
aa(lp1935
S'HCDR3'
p1936
aS'335'
p1937
aF9999999936.0377007
aa(lp1938
S'HCDR3'
p1939
aS'94'
p1940
aF1065676.1242000002
aa(lp1941
S'HCDR3'
p1942
aS'95'
p1943
aF712505265.75709999
aa(lp1944
S'HCDR3'
p1945
aS'96'
p1946
aF9999999847.709301
aa(lp1947
S'HCDR3'
p1948
aS'331'
p1949
aF3526501602.7818003
aa(lp1950
S'KCDR3'
p1951
aS'101'
p1952
aF-32.120800000000003
aa(lp1953
S'KCDR3'
p1954
aS'17'
p1955
aF-7.4859000000000009
aa(lp1956
S'KCDR3'
p1957
aS'12'
p1958
aF84188.582599999994
aa(lp1959
S'KCDR3'
p1960
aS'115'
p1961
aF156162.20179999998
aa(lp1962
S'KCDR3'
p1963
aS'114'
p1964
aF262.09399999999999
aa(lp1965
S'KV'
p1966
aS'8'
aF-2.3513999999999999
aa(lp1967
S'KV'
p1968
aS'9'
aF-96.428600000000003
aa(lp1969
S'KCDR3'
p1970
aS'111'
p1971
aF114.7196
aa(lp1972
S'KCDR3'
p1973
aS'135'
p1974
aF10000000040.843801
aa(lp1975
S'KCDR3'
p1976
aS'113'
p1977
aF41.285400000000003
aa(lp1978
S'KCDR3'
p1979
aS'112'
p1980
aF13977036.165200001
aa(lp1981
S'KV'
p1982
aS'2'
aF-58.197600000000001
aa(lp1983
S'KV'
p1984
aS'1'
aF6.2855999999999996
aa(lp1985
S'KV'
p1986
aS'6'
aF14.2881
aa(lp1987
S'KV'
p1988
aS'7'
aF17.522000000000002
aa(lp1989
S'KV'
p1990
aS'4'
aF12.829599999999999
aa(lp1991
S'KV'
p1992
aS'5'
aF8.1283999999999992
aa(lp1993
S'HCDR3'
p1994
aS'419'
p1995
aF9999999696.3147011
aa(lp1996
S'HCDR3'
p1997
aS'418'
p1998
aF10000000055.648602
aa(lp1999
S'HCDR3'
p2000
aS'149'
p2001
aF54480566.487400003
aa(lp2002
S'HCDR3'
p2003
aS'148'
p2004
aF9999999748.1549015
aa(lp2005
S'HCDR3'
p2006
aS'413'
p2007
aF9999999928.3638
aa(lp2008
S'HCDR3'
p2009
aS'412'
p2010
aF9999999803.8716011
aa(lp2011
S'HCDR3'
p2012
aS'411'
p2013
aF9999999969.8539009
aa(lp2014
S'HCDR3'
p2015
aS'410'
p2016
aF10000000018.587801
aa(lp2017
S'HCDR3'
p2018
aS'141'
p2019
aF9999999986.9939003
aa(lp2020
S'HCDR3'
p2021
aS'416'
p2022
aF10000000045.1485
aa(lp2023
S'HCDR3'
p2024
aS'143'
p2025
aF9999999559.526701
aa(lp2026
S'HCDR3'
p2027
aS'142'
p2028
aF9999999924.2147007
aa(lp2029
S'HV'
p2030
aS'44'
p2031
aF270106.86730000004
aa(lp2032
S'HV'
p2033
aS'45'
p2034
aF334360.16139999998
aa(lp2035
S'HV'
p2036
aS'46'
p2037
aF260524.02919999999
aa(lp2038
S'HCDR3'
p2039
aS'388'
p2040
aF9999999513.394701
aa(lp2041
S'HV'
p2042
aS'40'
p2043
aF3088690477.8017001
aa(lp2044
S'HV'
p2045
aS'41'
p2046
aF258884011.51320001
aa(lp2047
S'HV'
p2048
aS'42'
p2049
aF1956900535.5094001
aa(lp2050
S'HV'
p2051
aS'43'
p2052
aF268636.74700000003
aa(lp2053
S'HCDR3'
p2054
aS'383'
p2055
aF10000000061.334002
aa(lp2056
S'HCDR3'
p2057
aS'382'
p2058
aF872394132.7816
aa(lp2059
S'HCDR3'
p2060
aS'381'
p2061
aF9999999849.8057003
aa(lp2062
S'HCDR3'
p2063
aS'380'
p2064
aF9999999968.3120003
aa(lp2065
S'HCDR3'
p2066
aS'387'
p2067
aF9999999821.6155014
aa(lp2068
S'HCDR3'
p2069
aS'386'
p2070
aF9999999478.8099003
aa(lp2071
S'HCDR3'
p2072
aS'385'
p2073
aF9999999911.4612007
aa(lp2074
S'HCDR3'
p2075
aS'384'
p2076
aF9999999879.6052017
aa(lp2077
S'KCDR3'
p2078
aS'178'
p2079
aF-10.4907
aa(lp2080
S'KCDR3'
p2081
aS'9'
aF-1.6921000000000002
aa(lp2082
S'KCDR3'
p2083
aS'27'
p2084
aF-9.7134
aa(lp2085
S'KCDR3'
p2086
aS'10'
p2087
aF-1.4389999999999996
aa(lp2088
S'LV'
p2089
aS'28'
p2090
aF-4.0762
aa(lp2091
S'LV'
p2092
aS'29'
p2093
aF-2.2721
aa(lp2094
S'KCDR3'
p2095
aS'8'
aF2.5497000000000001
aa(lp2096
S'HCDR3'
p2097
aS'246'
p2098
aF9999999977.5881004
aa(lp2099
S'HCDR3'
p2100
aS'247'
p2101
aF7737452582.8793001
aa(lp2102
S'HCDR3'
p2103
aS'244'
p2104
aF9999999879.868
aa(lp2105
S'HCDR3'
p2106
aS'245'
p2107
aF2164167080.2009997
aa(lp2108
S'HCDR3'
p2109
aS'242'
p2110
aF4104636935.7918
aa(lp2111
S'HCDR3'
p2112
aS'243'
p2113
aF1745036828.5740998
aa(lp2114
S'HCDR3'
p2115
aS'240'
p2116
aF1851676191.1306
aa(lp2117
S'HCDR3'
p2118
aS'241'
p2119
aF10000000166.790602
aa(lp2120
S'LV'
p2121
aS'32'
p2122
aF-45.151000000000003
aa(lp2123
S'KCDR3'
p2124
aS'71'
p2125
aF-1.0255999999999998
aa(lp2126
S'LV'
p2127
aS'24'
p2128
aF487.15679999999998
aa(lp2129
S'HCDR3'
p2130
aS'248'
p2131
aF9999999914.330801
aa(lp2132
S'HCDR3'
p2133
aS'249'
p2134
aF9999999956.4818001
aa(lp2135
S'HCDR3'
p2136
aS'29'
p2137
aF125132755.9677
aa(lp2138
S'HCDR3'
p2139
aS'28'
p2140
aF10000000018.476002
aa(lp2141
S'LV'
p2142
aS'25'
p2143
aF41.772800000000004
aa(lp2144
S'HCDR3'
p2145
aS'21'
p2146
aF49654.3315
aa(lp2147
S'HCDR3'
p2148
aS'20'
p2149
aF1719564.1810999999
aa(lp2150
S'HCDR3'
p2151
aS'23'
p2152
aF1.0729000000000042
aa(lp2153
S'HCDR3'
p2154
aS'22'
p2155
aF3395.1305000000002
aa(lp2156
S'HCDR3'
p2157
aS'25'
p2158
aF9999999966.0699005
aa(lp2159
S'HCDR3'
p2160
aS'24'
p2161
aF21999613.753199998
aa(lp2162
S'HCDR3'
p2163
aS'27'
p2164
aF8007709.6497000009
aa(lp2165
S'HCDR3'
p2166
aS'26'
p2167
aF10000000016.999201
aa(lp2168
S'HV'
p2169
aS'139'
p2170
aF11771543.359399999
aa(lp2171
S'HV'
p2172
aS'138'
p2173
aF9999999688.7575016
aa(lp2174
S'HV'
p2175
aS'135'
p2176
aF163040.99669999999
aa(lp2177
S'HV'
p2178
aS'134'
p2179
aF4652499.3731999993
aa(lp2180
S'HV'
p2181
aS'137'
p2182
aF330116.34910000005
aa(lp2183
S'LV'
p2184
aS'21'
p2185
aF33.962299999999999
aa(lp2186
S'HV'
p2187
aS'131'
p2188
aF334445.08400000003
aa(lp2189
S'HV'
p2190
aS'130'
p2191
aF9999999913.4426003
aa(lp2192
S'HV'
p2193
aS'133'
p2194
aF53780469.754799999
aa(lp2195
S'HV'
p2196
aS'132'
p2197
aF4129180.9926
aa(lp2198
S'KV'
p2199
aS'54'
p2200
aF28.760400000000001
aa(lp2201
S'KV'
p2202
aS'55'
p2203
aF58.945100000000004
aa(lp2204
S'KV'
p2205
aS'56'
p2206
aF7.9631999999999996
aa(lp2207
S'KV'
p2208
aS'57'
p2209
aF56.802199999999999
aa(lp2210
S'KV'
p2211
aS'50'
p2212
aF3593.0816999999997
aa(lp2213
S'KV'
p2214
aS'51'
p2215
aF4.3805000000000014
aa(lp2216
S'KV'
p2217
aS'52'
p2218
aF4.683600000000002
aa(lp2219
S'KV'
p2220
aS'53'
p2221
aF4696.8779999999997
aa(lp2222
S'KV'
p2223
aS'58'
p2224
aF8.8706999999999994
aa(lp2225
S'KV'
p2226
aS'59'
p2227
aF-27.375800000000002
aa(lp2228
S'KCDR3'
p2229
aS'194'
p2230
aF134.7567
aa(lp2231
S'KCDR3'
p2232
aS'48'
p2233
aF-3.7319
aa(lp2234
S'KCDR3'
p2235
aS'49'
p2236
aF-17.849
aa(lp2237
S'KCDR3'
p2238
aS'46'
p2239
aF197843.8095
aa(lp2240
S'KCDR3'
p2241
aS'47'
p2242
aF-1.6591
aa(lp2243
S'KCDR3'
p2244
aS'44'
p2245
aF9999999940.7721004
aa(lp2246
S'KCDR3'
p2247
aS'45'
p2248
aF31.114100000000001
aa(lp2249
S'KCDR3'
p2250
aS'42'
p2251
aF-5.8006999999999991
aa(lp2252
S'KCDR3'
p2253
aS'43'
p2254
aF23.9925
aa(lp2255
S'KCDR3'
p2256
aS'40'
p2257
aF-7.0976999999999997
aa(lp2258
S'KCDR3'
p2259
aS'41'
p2260
aF-6.4435000000000002
aa(lp2261
S'LV'
p2262
aS'18'
p2263
aF-7.3193000000000001
aa(lp2264
S'KCDR3'
p2265
aS'165'
p2266
aF10000000057.1714
aa(lp2267
S'HCDR3'
p2268
aS'361'
p2269
aF10000000320.888901
aa(lp2270
S'KJ'
p2271
aS'4'
aF-3.4297999999999997
aa(lp2272
S'HCDR3'
p2273
aS'360'
p2274
aF9999999998.2454014
aa(lp2275
S'KCDR3'
p2276
aS'186'
p2277
aF819606.18640000001
aa(lp2278
S'KCDR3'
p2279
aS'75'
p2280
aF6.3596000000000004
aa(lp2281
S'HCDR3'
p2282
aS'363'
p2283
aF9999999887.7013016
aa(lp2284
S'HCDR3'
p2285
aS'362'
p2286
aF9999999906.3956013
aa(lp2287
S'HCDR3'
p2288
aS'365'
p2289
aF9999999960.7476006
aa(lp2290
S'HCDR3'
p2291
aS'364'
p2292
aF10000000050.0112
aa(lp2293
S'KCDR3'
p2294
aS'129'
p2295
aF-1.4890999999999996
aa(lp2296
S'HV'
p2297
aS'79'
p2298
aF866127564.20060003
aa(lp2299
S'HV'
p2300
aS'78'
p2301
aF5236657.8292000005
aa(lp2302
S'HV'
p2303
aS'75'
p2304
aF4515122.5090000005
aa(lp2305
S'HV'
p2306
aS'74'
p2307
aF1884.0771
aa(lp2308
S'HV'
p2309
aS'77'
p2310
aF3429681.4726999998
aa(lp2311
S'HV'
p2312
aS'76'
p2313
aF130342337.52739999
aa(lp2314
S'HV'
p2315
aS'71'
p2316
aF1385712.2619
aa(lp2317
S'HV'
p2318
aS'70'
p2319
aF1269099.5582999999
aa(lp2320
S'HV'
p2321
aS'73'
p2322
aF1017200.0466999999
aa(lp2323
S'HV'
p2324
aS'72'
p2325
aF1782348.0893000001
aa(lp2326
S'HCDR3'
p2327
aS'389'
p2328
aF9999999974.9144001
aa(lp2329
S'KCDR3'
p2330
aS'187'
p2331
aF458017870.18559998
aa(lp2332
S'KCDR3'
p2333
aS'184'
p2334
aF18556578.271200001
aa(lp2335
S'KCDR3'
p2336
aS'185'
p2337
aF3829655957.8807001
aa(lp2338
S'LCDR3'
p2339
aS'39'
p2340
aF2868771.0186000001
aa(lp2341
S'HCDR3'
p2342
aS'347'
p2343
aF10000000167.723902
aa(lp2344
S'HCDR3'
p2345
aS'346'
p2346
aF9999999979.9155006
aa(lp2347
S'HCDR3'
p2348
aS'345'
p2349
aF10000000064.2717
aa(lp2350
S'HCDR3'
p2351
aS'344'
p2352
aF1091200995.2017999
aa(lp2353
S'HCDR3'
p2354
aS'343'
p2355
aF10000000124.972601
aa(lp2356
S'HCDR3'
p2357
aS'342'
p2358
aF10000000041.054501
aa(lp2359
S'HCDR3'
p2360
aS'341'
p2361
aF9999999278.2105007
aa(lp2362
S'HCDR3'
p2363
aS'340'
p2364
aF8463329339.6686001
aa(lp2365
S'HCDR3'
p2366
aS'349'
p2367
aF9999999824.4989014
aa(lp2368
S'HCDR3'
p2369
aS'348'
p2370
aF10000000337.350901
aa(lp2371
S'LCDR3'
p2372
aS'1'
aF341.71879999999999
aa(lp2373
S'KCDR3'
p2374
aS'148'
p2375
aF85823388.544100001
aa(lp2376
S'KCDR3'
p2377
aS'149'
p2378
aF-5.5114000000000001
aa(lp2379
S'KCDR3'
p2380
aS'142'
p2381
aF-9.5274000000000001
aa(lp2382
S'KCDR3'
p2383
aS'143'
p2384
aF10665.551100000001
aa(lp2385
S'KCDR3'
p2386
aS'140'
p2387
aF-10.229800000000001
aa(lp2388
S'KCDR3'
p2389
aS'141'
p2390
aF-9.8805999999999994
aa(lp2391
S'KCDR3'
p2392
aS'146'
p2393
aF250086.61010000002
aa(lp2394
S'KCDR3'
p2395
aS'147'
p2396
aF7620125.2993000001
aa(lp2397
S'KCDR3'
p2398
aS'144'
p2399
aF4283.1282000000001
aa(lp2400
S'KCDR3'
p2401
aS'145'
p2402
aF28.8704
aa(lp2403
S'HCDR3'
p2404
aS'282'
p2405
aF9999999930.9289017
aa(lp2406
S'HCDR3'
p2407
aS'283'
p2408
aF9999999969.7038002
aa(lp2409
S'HCDR3'
p2410
aS'280'
p2411
aF10000000097.905602
aa(lp2412
S'HCDR3'
p2413
aS'281'
p2414
aF1356582525.1375
aa(lp2415
S'HCDR3'
p2416
aS'286'
p2417
aF3420350708.3399
aa(lp2418
S'HCDR3'
p2419
aS'287'
p2420
aF10000000355.532501
aa(lp2421
S'HCDR3'
p2422
aS'284'
p2423
aF9999999996.457201
aa(lp2424
S'HCDR3'
p2425
aS'285'
p2426
aF9999999835.0984001
aa(lp2427
S'HCDR3'
p2428
aS'288'
p2429
aF588436980.50300002
aa(lp2430
S'HCDR3'
p2431
aS'289'
p2432
aF10000000271.3297
aa(lp2433
S'HV'
p2434
aS'24'
p2435
aF9999999991.3417015
aa(lp2436
S'HCDR3'
p2437
aS'112'
p2438
aF9999999767.0848999
aa(lp2439
S'HCDR3'
p2440
aS'113'
p2441
aF9999999881.9229012
aa(lp2442
S'HCDR3'
p2443
aS'110'
p2444
aF97906397.959099993
aa(lp2445
S'HCDR3'
p2446
aS'111'
p2447
aF10000000029.8477
aa(lp2448
S'HCDR3'
p2449
aS'116'
p2450
aF9999999981.5408001
aa(lp2451
S'HCDR3'
p2452
aS'117'
p2453
aF86668904.962799996
aa(lp2454
S'HCDR3'
p2455
aS'114'
p2456
aF98444899.342399999
aa(lp2457
S'HCDR3'
p2458
aS'115'
p2459
aF10000000176.442701
aa(lp2460
S'KCDR3'
p2461
aS'125'
p2462
aF-1.2143999999999999
aa(lp2463
S'HCDR3'
p2464
aS'118'
p2465
aF21199499.866599999
aa(lp2466
S'HCDR3'
p2467
aS'119'
p2468
aF10000000012.8104
aa(lp2469
S'HCDR3'
p2470
aS'65'
p2471
aF9999999945.1884003
aa(lp2472
S'HCDR3'
p2473
aS'64'
p2474
aF9999999751.0014
aa(lp2475
S'HCDR3'
p2476
aS'67'
p2477
aF749202.23820000002
aa(lp2478
S'HCDR3'
p2479
aS'66'
p2480
aF9999999954.1729012
aa(lp2481
S'HCDR3'
p2482
aS'61'
p2483
aF9999999925.7390003
aa(lp2484
S'HCDR3'
p2485
aS'60'
p2486
aF2131397634.8859999
aa(lp2487
S'HCDR3'
p2488
aS'63'
p2489
aF3302058.8895
aa(lp2490
S'HCDR3'
p2491
aS'62'
p2492
aF3920643.7933
aa(lp2493
S'LV'
p2494
aS'13'
p2495
aF31.7042
aa(lp2496
S'LV'
p2497
aS'12'
p2498
aF12.1706
aa(lp2499
S'LV'
p2500
aS'11'
p2501
aF-5.2350999999999992
aa(lp2502
S'LV'
p2503
aS'10'
p2504
aF69.897499999999994
aa(lp2505
S'HCDR3'
p2506
aS'69'
p2507
aF9999999763.1451015
aa(lp2508
S'HCDR3'
p2509
aS'68'
p2510
aF2432158.6022999999
aa(lp2511
S'LV'
p2512
aS'15'
p2513
aF31.672199999999997
aa(lp2514
S'LV'
p2515
aS'14'
p2516
aF44.728400000000001
aa(lp2517
S'HCDR3'
p2518
aS'300'
p2519
aF9999999897.3949013
aa(lp2520
S'KJ'
p2521
aS'3'
aF-3.4058999999999999
aa(lp2522
S'KV'
p2523
aS'18'
p2524
aF13.448
aa(lp2525
S'KV'
p2526
aS'19'
p2527
aF265.51439999999997
aa(lp2528
S'KV'
p2529
aS'10'
p2530
aF52.131500000000003
aa(lp2531
S'KV'
p2532
aS'11'
p2533
aF54.042099999999998
aa(lp2534
S'KV'
p2535
aS'12'
p2536
aF54.294400000000003
aa(lp2537
S'KV'
p2538
aS'13'
p2539
aF788.32799999999997
aa(lp2540
S'KV'
p2541
aS'14'
p2542
aF841.89249999999993
aa(lp2543
S'KV'
p2544
aS'15'
p2545
aF64636.704400000002
aa(lp2546
S'KV'
p2547
aS'16'
p2548
aF-7.4390000000000001
aa(lp2549
S'KV'
p2550
aS'17'
p2551
aF7.6355000000000004
aa(lp2552
S'LV'
p2553
aS'38'
p2554
aF4531.6941999999999
aa(lp2555
S'KCDR3'
p2556
aS'39'
p2557
aF1.4116999999999997
aa(lp2558
S'HCDR3'
p2559
aS'239'
p2560
aF9999999719.8610001
aa(lp2561
S'HCDR3'
p2562
aS'238'
p2563
aF10000000147.109901
aa(lp2564
S'HCDR3'
p2565
aS'237'
p2566
aF9999999925.9485016
aa(lp2567
S'HCDR3'
p2568
aS'236'
p2569
aF9999999991.1168003
aa(lp2570
S'HCDR3'
p2571
aS'235'
p2572
aF10000000020.558001
aa(lp2573
S'HCDR3'
p2574
aS'234'
p2575
aF9999999904.5347004
aa(lp2576
S'HCDR3'
p2577
aS'233'
p2578
aF9999999987.1771011
aa(lp2579
S'HCDR3'
p2580
aS'232'
p2581
aF9999999818.3019009
aa(lp2582
S'HCDR3'
p2583
aS'231'
p2584
aF9999999879.1786003
aa(lp2585
S'HCDR3'
p2586
aS'230'
p2587
aF9999999979.2076015
aa(lp2588
S'HCDR3'
p2589
aS'308'
p2590
aF10000000255.3339
aa(lp2591
S'HCDR3'
p2592
aS'10'
p2593
aF30844931.257900003
aa(lp2594
S'HCDR3'
p2595
aS'11'
p2596
aF463448.00560000003
aa(lp2597
S'HCDR3'
p2598
aS'12'
p2599
aF906583534.06280005
aa(lp2600
S'HCDR3'
p2601
aS'13'
p2602
aF167.6087
aa(lp2603
S'HCDR3'
p2604
aS'14'
p2605
aF160932.0184
aa(lp2606
S'HCDR3'
p2607
aS'15'
p2608
aF-15.583400000000001
aa(lp2609
S'HCDR3'
p2610
aS'16'
p2611
aF7330425117.7189999
aa(lp2612
S'HCDR3'
p2613
aS'17'
p2614
aF74808536.309200004
aa(lp2615
S'HCDR3'
p2616
aS'18'
p2617
aF1994003.9461000001
aa(lp2618
S'HCDR3'
p2619
aS'19'
p2620
aF169776562.3624
aa(lp2621
S'KCDR3'
p2622
aS'110'
p2623
aF-1.1164000000000005
aa(lp2624
S'HCDR3'
p2625
aS'81'
p2626
aF10000000008.659302
aa(lp2627
S'KCDR3'
p2628
aS'199'
p2629
aF660056216.7184
aa(lp2630
S'KV'
p2631
aS'65'
p2632
aF3379.7529
aa(lp2633
S'KV'
p2634
aS'64'
p2635
aF5.6894000000000027
aa(lp2636
S'KV'
p2637
aS'67'
p2638
aF6977.7662
aa(lp2639
S'KV'
p2640
aS'66'
p2641
aF76801.638200000001
aa(lp2642
S'KV'
p2643
aS'61'
p2644
aF-10.498900000000006
aa(lp2645
S'KV'
p2646
aS'60'
p2647
aF7.0081000000000007
aa(lp2648
S'KV'
p2649
aS'63'
p2650
aF8.2245000000000008
aa(lp2651
S'KV'
p2652
aS'62'
p2653
aF23258.302100000001
aa(lp2654
S'LV'
p2655
aS'35'
p2656
aF35.615499999999997
aa(lp2657
S'HCDR3'
p2658
aS'303'
p2659
aF10000000084.6495
aa(lp2660
S'HCDR3'
p2661
aS'302'
p2662
aF9999999608.9974003
aa(lp2663
S'HCDR3'
p2664
aS'89'
p2665
aF9999999970.1623001
aa(lp2666
S'HCDR3'
p2667
aS'88'
p2668
aF322521804.7902
aa(lp2669
S'HCDR3'
p2670
aS'307'
p2671
aF9999999922.2552013
aa(lp2672
S'HCDR3'
p2673
aS'306'
p2674
aF9999999785.6095009
aa(lp2675
S'HCDR3'
p2676
aS'305'
p2677
aF9999999767.6743011
aa(lp2678
S'HCDR3'
p2679
aS'304'
p2680
aF4103217954.1108003
aa(lp2681
S'HCDR3'
p2682
aS'83'
p2683
aF879015443.13969994
aa(lp2684
S'HCDR3'
p2685
aS'82'
p2686
aF1450081391.8602002
aa(lp2687
S'HCDR3'
p2688
aS'309'
p2689
aF9999999907.0417004
aa(lp2690
S'HCDR3'
p2691
aS'80'
p2692
aF2058786716.6092
aa(lp2693
S'HCDR3'
p2694
aS'87'
p2695
aF9999999581.7204018
aa(lp2696
S'HCDR3'
p2697
aS'86'
p2698
aF9012.4585000000006
aa(lp2699
S'HCDR3'
p2700
aS'85'
p2701
aF48970766.576700002
aa(lp2702
S'HCDR3'
p2703
aS'84'
p2704
aF387585070.9368
aa.