ccopy_reg
_reconstructor
p1
(cmolecules
ProtoAntibody
p2
c__builtin__
object
p3
NtRp4
(dp5
S'energy'
p6
F2554.2640000000001
sS'light_chain'
p7
S'K'
sS'cluster'
p8
NsS'parts'
p9
(dp10
S'KJ'
p11
S'2'
sS'KCDR3'
p12
S'135'
p13
sS'HV'
p14
S'5'
sS'HJ'
p15
S'5'
sS'HCDR3'
p16
S'6'
sS'KV'
p17
S'10'
p18
ssS'coords'
p19
NsS'position'
p20
(F120
F-7.5
F7.5
F11.25
tp21
sb.