ccopy_reg
_reconstructor
p1
(cmolecules
ProtoAntibody
p2
c__builtin__
object
p3
NtRp4
(dp5
S'energy'
p6
F4433.5905000000012
sS'light_chain'
p7
S'K'
sS'cluster'
p8
NsS'parts'
p9
(dp10
S'KJ'
p11
S'3'
sS'KCDR3'
p12
S'23'
p13
sS'HV'
p14
S'108'
p15
sS'HJ'
p16
S'1'
sS'HCDR3'
p17
S'1'
sS'KV'
p18
S'53'
p19
ssS'coords'
p20
NsS'position'
p21
(F120
F5
F0
F12.5
tp22
sb.