ccopy_reg
_reconstructor
p1
(cmolecules
ProtoAntibody
p2
c__builtin__
object
p3
NtRp4
(dp5
S'energy'
p6
F-34.328399999999995
sS'light_chain'
p7
S'K'
sS'cluster'
p8
NsS'parts'
p9
(dp10
S'KJ'
p11
S'3'
sS'KCDR3'
p12
S'6'
sS'HV'
p13
S'8'
sS'HJ'
p14
S'1'
sS'HCDR3'
p15
S'94'
p16
sS'KV'
p17
S'4'
ssS'coords'
p18
NsS'position'
p19
(F300
F-5
F-5
F16.25
tp20
sb.