ccopy_reg
_reconstructor
p1
(cmolecules
ProtoAntibody
p2
c__builtin__
object
p3
NtRp4
(dp5
S'energy'
p6
F76.828099999999992
sS'light_chain'
p7
S'K'
sS'cluster'
p8
NsS'parts'
p9
(dp10
S'KJ'
p11
S'3'
sS'KCDR3'
p12
S'20'
p13
sS'HV'
p14
S'44'
p15
sS'HJ'
p16
S'4'
sS'HCDR3'
p17
S'84'
p18
sS'KV'
p19
S'65'
p20
ssS'coords'
p21
NsS'position'
p22
(F120
F0
F2.5
F12.5
tp23
sb.