ccopy_reg
_reconstructor
p1
(cmolecules
ProtoAntibody
p2
c__builtin__
object
p3
NtRp4
(dp5
S'energy'
p6
F-162.69220000000001
sS'light_chain'
p7
S'K'
sS'cluster'
p8
NsS'parts'
p9
(dp10
S'KJ'
p11
S'4'
sS'KCDR3'
p12
S'62'
p13
sS'HV'
p14
S'110'
p15
sS'HJ'
p16
S'5'
sS'HCDR3'
p17
S'21'
p18
sS'KV'
p19
S'7'
ssS'coords'
p20
NsS'position'
p21
(F120
F5
F-5
F16.25
tp22
sb.