ccopy_reg
_reconstructor
p1
(cmolecules
ProtoAntibody
p2
c__builtin__
object
p3
NtRp4
(dp5
S'energy'
p6
F184733.3321
sS'light_chain'
p7
S'L'
sS'cluster'
p8
NsS'parts'
p9
(dp10
S'HJ'
p11
S'4'
sS'LJ'
p12
S'5'
sS'HV'
p13
S'132'
p14
sS'LV'
p15
S'37'
p16
sS'HCDR3'
p17
S'8'
sS'LCDR3'
p18
S'16'
p19
ssS'coords'
p20
NsS'position'
p21
(F240
F5
F-5
F15
tp22
sb.