ccopy_reg
_reconstructor
p1
(cmolecules
ProtoAntibody
p2
c__builtin__
object
p3
NtRp4
(dp5
S'energy'
p6
F171069.74170000004
sS'light_chain'
p7
S'K'
sS'cluster'
p8
NsS'parts'
p9
(dp10
S'KJ'
p11
S'4'
sS'KCDR3'
p12
S'103'
p13
sS'HV'
p14
S'5'
sS'HJ'
p15
S'4'
sS'HCDR3'
p16
S'31'
p17
sS'KV'
p18
S'7'
ssS'coords'
p19
NsS'position'
p20
(F240
F2.5
F7.5
F15
tp21
sb.