ccopy_reg
_reconstructor
p1
(cmolecules
ProtoAntibody
p2
c__builtin__
object
p3
NtRp4
(dp5
S'energy'
p6
F36793129.903800003
sS'light_chain'
p7
S'K'
sS'cluster'
p8
NsS'parts'
p9
(dp10
S'KJ'
p11
S'3'
sS'KCDR3'
p12
S'123'
p13
sS'HV'
p14
S'123'
p15
sS'HJ'
p16
S'5'
sS'HCDR3'
p17
S'8'
sS'KV'
p18
S'15'
p19
ssS'coords'
p20
NsS'position'
p21
(F240
F2.5
F0
F15
tp22
sb.