ccopy_reg
_reconstructor
p1
(cmolecules
ProtoAntibody
p2
c__builtin__
object
p3
NtRp4
(dp5
S'energy'
p6
F-51.511300000000013
sS'light_chain'
p7
S'L'
sS'cluster'
p8
NsS'parts'
p9
(dp10
S'HJ'
p11
S'2'
sS'LJ'
p12
S'6'
sS'HV'
p13
S'111'
p14
sS'LV'
p15
S'15'
p16
sS'HCDR3'
p17
S'66'
p18
sS'LCDR3'
p19
S'6'
ssS'coords'
p20
NsS'position'
p21
(F60
F-5
F5
F15
tp22
sb.