ccopy_reg
_reconstructor
p1
(cmolecules
ProtoAntibody
p2
c__builtin__
object
p3
NtRp4
(dp5
S'energy'
p6
F51407305.838699989
sS'light_chain'
p7
S'K'
sS'cluster'
p8
NsS'parts'
p9
(dp10
S'KJ'
p11
S'1'
sS'KCDR3'
p12
S'7'
sS'HV'
p13
S'46'
p14
sS'HJ'
p15
S'1'
sS'HCDR3'
p16
S'307'
p17
sS'KV'
p18
S'64'
p19
ssS'coords'
p20
NsS'position'
p21
(F0
F-2.5
F10
F13.75
tp22
sb.