ccopy_reg
_reconstructor
p1
(cmolecules
ProtoAntibody
p2
c__builtin__
object
p3
NtRp4
(dp5
S'energy'
p6
F3551523.6359999957
sS'light_chain'
p7
S'L'
sS'cluster'
p8
NsS'parts'
p9
(dp10
S'HJ'
p11
S'5'
sS'LJ'
p12
S'5'
sS'HV'
p13
S'13'
p14
sS'LV'
p15
S'23'
p16
sS'HCDR3'
p17
S'315'
p18
sS'LCDR3'
p19
S'11'
p20
ssS'coords'
p21
NsS'position'
p22
(F300
F-10
F5
F16.25
tp23
sb.