ccopy_reg
_reconstructor
p1
(cmolecules
ProtoAntibody
p2
c__builtin__
object
p3
NtRp4
(dp5
S'energy'
p6
F2647355.6725999997
sS'light_chain'
p7
S'K'
sS'cluster'
p8
NsS'parts'
p9
(dp10
S'KJ'
p11
S'3'
sS'KCDR3'
p12
S'135'
p13
sS'HV'
p14
S'6'
sS'HJ'
p15
S'4'
sS'HCDR3'
p16
S'90'
p17
sS'KV'
p18
S'5'
ssS'coords'
p19
NsS'position'
p20
(F300
F-7.5
F10
F13.75
tp21
sb.