ccopy_reg
_reconstructor
p1
(cmolecules
ProtoAntibody
p2
c__builtin__
object
p3
NtRp4
(dp5
S'energy'
p6
F230360.03160000002
sS'light_chain'
p7
S'K'
sS'cluster'
p8
NsS'parts'
p9
(dp10
S'KJ'
p11
S'3'
sS'KCDR3'
p12
S'199'
p13
sS'HV'
p14
S'86'
p15
sS'HJ'
p16
S'1'
sS'HCDR3'
p17
S'387'
p18
sS'KV'
p19
S'65'
p20
ssS'coords'
p21
NsS'position'
p22
(F240
F-7.5
F7.5
F15
tp23
sb.