ccopy_reg
_reconstructor
p1
(cmolecules
ProtoAntibody
p2
c__builtin__
object
p3
NtRp4
(dp5
S'energy'
p6
F-109.96799999999999
sS'light_chain'
p7
S'K'
sS'cluster'
p8
NsS'parts'
p9
(dp10
S'KJ'
p11
S'3'
sS'KCDR3'
p12
S'3'
sS'HV'
p13
S'133'
p14
sS'HJ'
p15
S'1'
sS'HCDR3'
p16
S'8'
sS'KV'
p17
S'2'
ssS'coords'
p18
NsS'position'
p19
(F0
F-2.5
F-5
F15
tp20
sb.