ccopy_reg
_reconstructor
p1
(cmolecules
ProtoAntibody
p2
c__builtin__
object
p3
NtRp4
(dp5
S'energy'
p6
F2749.8364999999999
sS'light_chain'
p7
S'K'
sS'cluster'
p8
NsS'parts'
p9
(dp10
S'KJ'
p11
S'4'
sS'KCDR3'
p12
S'71'
p13
sS'HV'
p14
S'8'
sS'HJ'
p15
S'1'
sS'HCDR3'
p16
S'4'
sS'KV'
p17
S'6'
ssS'coords'
p18
NsS'position'
p19
(F300
F0
F-5
F12.5
tp20
sb.