ccopy_reg
_reconstructor
p1
(cmolecules
ProtoAntibody
p2
c__builtin__
object
p3
NtRp4
(dp5
S'energy'
p6
F992.77499999999998
sS'light_chain'
p7
S'L'
sS'cluster'
p8
NsS'parts'
p9
(dp10
S'HJ'
p11
S'5'
sS'LJ'
p12
S'1'
sS'HV'
p13
S'102'
p14
sS'LV'
p15
S'28'
p16
sS'HCDR3'
p17
S'2'
sS'LCDR3'
p18
S'31'
p19
ssS'coords'
p20
NsS'position'
p21
(F180
F5
F5
F11.25
tp22
sb.