ccopy_reg
_reconstructor
p1
(cmolecules
ProtoAntibody
p2
c__builtin__
object
p3
NtRp4
(dp5
S'energy'
p6
F-52.154800000000002
sS'light_chain'
p7
S'K'
sS'cluster'
p8
NsS'parts'
p9
(dp10
S'KJ'
p11
S'3'
sS'KCDR3'
p12
S'190'
p13
sS'HV'
p14
S'8'
sS'HJ'
p15
S'4'
sS'HCDR3'
p16
S'132'
p17
sS'KV'
p18
S'54'
p19
ssS'coords'
p20
NsS'position'
p21
(F300
F0
F-5
F15
tp22
sb.