ccopy_reg
_reconstructor
p1
(cmolecules
ProtoAntibody
p2
c__builtin__
object
p3
NtRp4
(dp5
S'energy'
p6
F96844741.984099999
sS'light_chain'
p7
S'K'
sS'cluster'
p8
NsS'parts'
p9
(dp10
S'KJ'
p11
S'2'
sS'KCDR3'
p12
S'29'
p13
sS'HV'
p14
S'17'
p15
sS'HJ'
p16
S'3'
sS'HCDR3'
p17
S'4'
sS'KV'
p18
S'8'
ssS'coords'
p19
NsS'position'
p20
(F120
F5
F0
F10
tp21
sb.