ccopy_reg
_reconstructor
p1
(cmolecules
ProtoAntibody
p2
c__builtin__
object
p3
NtRp4
(dp5
S'energy'
p6
F21710981.896500003
sS'light_chain'
p7
S'K'
sS'cluster'
p8
NsS'parts'
p9
(dp10
S'KJ'
p11
S'3'
sS'KCDR3'
p12
S'17'
p13
sS'HV'
p14
S'5'
sS'HJ'
p15
S'5'
sS'HCDR3'
p16
S'7'
sS'KV'
p17
S'13'
p18
ssS'coords'
p19
NsS'position'
p20
(F0
F-7.5
F-2.5
F12.5
tp21
sb.