(lp1
(lp2
S'KCDR3'
p3
aS'84'
p4
aF-6.2507000000000001
aa(lp5
S'KCDR3'
p6
aS'85'
p7
aF-9.2628000000000004
aa(lp8
S'KCDR3'
p9
aS'106'
p10
aF14713.790800000001
aa(lp11
S'KCDR3'
p12
aS'107'
p13
aF3.7357000000000005
aa(lp14
S'KCDR3'
p15
aS'104'
p16
aF493.80270000000002
aa(lp17
S'KCDR3'
p18
aS'105'
p19
aF-6.7934000000000001
aa(lp20
S'KCDR3'
p21
aS'102'
p22
aF2.2157999999999998
aa(lp23
S'KCDR3'
p24
aS'103'
p25
aF-11.4148
aa(lp26
S'KCDR3'
p27
aS'100'
p28
aF0.7094999999999998
aa(lp29
S'KCDR3'
p30
aS'195'
p31
aF-0.48459999999999992
aa(lp32
S'KCDR3'
p33
aS'88'
p34
aF-8.1518999999999995
aa(lp35
S'KCDR3'
p36
aS'108'
p37
aF8.9616000000000007
aa(lp38
S'KCDR3'
p39
aS'109'
p40
aF-8.3003999999999998
aa(lp41
S'KCDR3'
p42
aS'89'
p43
aF-5.7479999999999993
aa(lp44
S'HCDR3'
p45
aS'408'
p46
aF1243925485.3334
aa(lp47
S'HCDR3'
p48
aS'409'
p49
aF9999999938.3955002
aa(lp50
S'HCDR3'
p51
aS'158'
p52
aF-1.0850000000000002
aa(lp53
S'HCDR3'
p54
aS'159'
p55
aF2.2674000000000003
aa(lp56
S'HCDR3'
p57
aS'404'
p58
aF1052076676.0379001
aa(lp59
S'HCDR3'
p60
aS'405'
p61
aF698168.79299999995
aa(lp62
S'HCDR3'
p63
aS'406'
p64
aF501250020.17229998
aa(lp65
S'HCDR3'
p66
aS'407'
p67
aF940669.22349999996
aa(lp68
S'HCDR3'
p69
aS'400'
p70
aF10000000074.615101
aa(lp71
S'HCDR3'
p72
aS'153'
p73
aF-4.2516999999999996
aa(lp74
S'HCDR3'
p75
aS'402'
p76
aF10000000116.833
aa(lp77
S'HCDR3'
p78
aS'151'
p79
aF-1.3346999999999998
aa(lp80
S'HV'
p81
aS'31'
p82
aF-11.1823
aa(lp83
S'HV'
p84
aS'30'
p85
aF-10.3949
aa(lp86
S'HV'
p87
aS'33'
p88
aF1.0954999999999999
aa(lp89
S'HV'
p90
aS'32'
p91
aF-13.8879
aa(lp92
S'HV'
p93
aS'35'
p94
aF1.0607
aa(lp95
S'HV'
p96
aS'34'
p97
aF0.81259999999999999
aa(lp98
S'HV'
p99
aS'37'
p100
aF-10.968999999999999
aa(lp101
S'HV'
p102
aS'36'
p103
aF-11.1127
aa(lp104
S'HV'
p105
aS'39'
p106
aF-16.564399999999999
aa(lp107
S'HV'
p108
aS'38'
p109
aF-14.209300000000001
aa(lp110
S'HCDR3'
p111
aS'396'
p112
aF-8.7529000000000003
aa(lp113
S'HCDR3'
p114
aS'397'
p115
aF107941496.6124
aa(lp116
S'HCDR3'
p117
aS'390'
p118
aF1659264.594
aa(lp119
S'HCDR3'
p120
aS'391'
p121
aF10000000023.7183
aa(lp122
S'HCDR3'
p123
aS'392'
p124
aF1460935.0071
aa(lp125
S'HCDR3'
p126
aS'393'
p127
aF10000000102.057701
aa(lp128
S'KCDR3'
p129
aS'197'
p130
aF161392.34100000001
aa(lp131
S'HCDR3'
p132
aS'279'
p133
aF1853129.5359
aa(lp134
S'HCDR3'
p135
aS'278'
p136
aF-6.2001999999999997
aa(lp137
S'HCDR3'
p138
aS'273'
p139
aF1102.7327
aa(lp140
S'HCDR3'
p141
aS'272'
p142
aF31.763199999999998
aa(lp143
S'HCDR3'
p144
aS'271'
p145
aF-2.6054000000000004
aa(lp146
S'HCDR3'
p147
aS'270'
p148
aF-1.4990000000000001
aa(lp149
S'HCDR3'
p150
aS'277'
p151
aF19.676100000000002
aa(lp152
S'HCDR3'
p153
aS'276'
p154
aF2.6884000000000006
aa(lp155
S'HCDR3'
p156
aS'275'
p157
aF-1.1502000000000001
aa(lp158
S'HCDR3'
p159
aS'274'
p160
aF-1.8134000000000001
aa(lp161
S'KCDR3'
p162
aS'196'
p163
aF-2.3940999999999999
aa(lp164
S'LV'
p165
aS'33'
p166
aF262725611.25749999
aa(lp167
S'LCDR3'
p168
aS'17'
p169
aF9.6621000000000006
aa(lp170
S'HCDR3'
p171
aS'58'
p172
aF0.37359999999999999
aa(lp173
S'HCDR3'
p174
aS'30'
p175
aF0.3644
aa(lp176
S'HCDR3'
p177
aS'54'
p178
aF-1.4453
aa(lp179
S'HCDR3'
p180
aS'55'
p181
aF0.67280000000000006
aa(lp182
S'HCDR3'
p183
aS'56'
p184
aF1.6200999999999999
aa(lp185
S'HCDR3'
p186
aS'57'
p187
aF-0.83979999999999999
aa(lp188
S'HCDR3'
p189
aS'50'
p190
aF0.34190000000000004
aa(lp191
S'HCDR3'
p192
aS'51'
p193
aF-0.4010999999999999
aa(lp194
S'HCDR3'
p195
aS'52'
p196
aF-2.4451999999999998
aa(lp197
S'HCDR3'
p198
aS'53'
p199
aF0.040100000000000004
aa(lp200
S'HV'
p201
aS'108'
p202
aF0.60819999999999996
aa(lp203
S'HV'
p204
aS'109'
p205
aF-1.171
aa(lp206
S'HV'
p207
aS'100'
p208
aF0.29169999999999996
aa(lp209
S'HV'
p210
aS'101'
p211
aF0.3407
aa(lp212
S'HV'
p213
aS'102'
p214
aF-1.5495999999999999
aa(lp215
S'HV'
p216
aS'103'
p217
aF0.97880000000000011
aa(lp218
S'HV'
p219
aS'104'
p220
aF0.57500000000000007
aa(lp221
S'HV'
p222
aS'105'
p223
aF0.65159999999999996
aa(lp224
S'HV'
p225
aS'106'
p226
aF1.0381
aa(lp227
S'HV'
p228
aS'107'
p229
aF0.9396000000000001
aa(lp230
S'KV'
p231
aS'21'
p232
aF19242.797899999998
aa(lp233
S'KV'
p234
aS'20'
p235
aF20865.872900000002
aa(lp236
S'KV'
p237
aS'23'
p238
aF20175.303799999998
aa(lp239
S'KV'
p240
aS'22'
p241
aF17114.106400000001
aa(lp242
S'KV'
p243
aS'25'
p244
aF18568.830299999998
aa(lp245
S'HCDR3'
p246
aS'49'
p247
aF-0.36530000000000001
aa(lp248
S'KV'
p249
aS'27'
p250
aF1737.5458000000001
aa(lp251
S'KV'
p252
aS'29'
p253
aF16695.32
aa(lp254
S'KV'
p255
aS'28'
p256
aF17906.517
aa(lp257
S'HV'
p258
aS'110'
p259
aF0.28059999999999996
aa(lp260
S'KCDR3'
p261
aS'190'
p262
aF-7.3551000000000002
aa(lp263
S'KCDR3'
p264
aS'51'
p265
aF4.0900999999999996
aa(lp266
S'KCDR3'
p267
aS'50'
p268
aF1.9772000000000001
aa(lp269
S'KCDR3'
p270
aS'53'
p271
aF5.8376999999999999
aa(lp272
S'KCDR3'
p273
aS'52'
p274
aF2.4754999999999998
aa(lp275
S'KCDR3'
p276
aS'55'
p277
aF-2.9838
aa(lp278
S'HCDR3'
p279
aS'38'
p280
aF-0.4229
aa(lp281
S'KCDR3'
p282
aS'57'
p283
aF-1.3340999999999998
aa(lp284
S'KCDR3'
p285
aS'56'
p286
aF-0.74129999999999996
aa(lp287
S'KCDR3'
p288
aS'59'
p289
aF-1.0554999999999999
aa(lp290
S'KCDR3'
p291
aS'58'
p292
aF-1.7902
aa(lp293
S'HCDR3'
p294
aS'39'
p295
aF-0.12279999999999999
aa(lp296
S'LV'
p297
aS'37'
p298
aF9999999963.7308006
aa(lp299
S'LCDR3'
p300
aS'11'
p301
aF-3.1506999999999996
aa(lp302
S'KCDR3'
p303
aS'54'
p304
aF-10.521699999999999
aa(lp305
S'LV'
p306
aS'36'
p307
aF7013273.6604000004
aa(lp308
S'LV'
p309
aS'31'
p310
aF1005435689.7523
aa(lp311
S'KCDR3'
p312
aS'193'
p313
aF-17.117699999999999
aa(lp314
S'LCDR3'
p315
aS'27'
p316
aF-0.34630000000000005
aa(lp317
S'LV'
p318
aS'30'
p319
aF1635211333.2310998
aa(lp320
S'HCDR3'
p321
aS'41'
p322
aF0.36199999999999999
aa(lp323
S'HCDR3'
p324
aS'40'
p325
aF-0.34179999999999999
aa(lp326
S'KCDR3'
p327
aS'192'
p328
aF-3.7503000000000002
aa(lp329
S'HCDR3'
p330
aS'156'
p331
aF-0.38899999999999996
aa(lp332
S'HCDR3'
p333
aS'157'
p334
aF507.67399999999998
aa(lp335
S'KCDR3'
p336
aS'65'
p337
aF31.953500000000002
aa(lp338
S'HCDR3'
p339
aS'154'
p340
aF-2.9180000000000001
aa(lp341
S'HCDR3'
p342
aS'155'
p343
aF-6.9093
aa(lp344
S'HV'
p345
aS'68'
p346
aF1.4276
aa(lp347
S'HV'
p348
aS'69'
p349
aF1.4212
aa(lp350
S'HV'
p351
aS'66'
p352
aF1.4328000000000001
aa(lp353
S'HV'
p354
aS'67'
p355
aF1.2546999999999999
aa(lp356
S'HV'
p357
aS'64'
p358
aF1.4768000000000001
aa(lp359
S'HV'
p360
aS'65'
p361
aF2.0354999999999999
aa(lp362
S'HV'
p363
aS'62'
p364
aF-0.57450000000000001
aa(lp365
S'HV'
p366
aS'63'
p367
aF1.4748000000000001
aa(lp368
S'HV'
p369
aS'60'
p370
aF-0.62670000000000003
aa(lp371
S'HV'
p372
aS'61'
p373
aF-0.6421
aa(lp374
S'HCDR3'
p375
aS'150'
p376
aF2239.7305000000001
aa(lp377
S'HCDR3'
p378
aS'403'
p379
aF468500226.14469999
aa(lp380
S'HCDR3'
p381
aS'358'
p382
aF9999999911.3513012
aa(lp383
S'HCDR3'
p384
aS'359'
p385
aF179250.4884
aa(lp386
S'HCDR3'
p387
aS'350'
p388
aF429.70120000000003
aa(lp389
S'HCDR3'
p390
aS'351'
p391
aF-1.9618000000000002
aa(lp392
S'HCDR3'
p393
aS'352'
p394
aF-7.2696999999999994
aa(lp395
S'HCDR3'
p396
aS'353'
p397
aF190231642.33630002
aa(lp398
S'HCDR3'
p399
aS'354'
p400
aF732571616.56860006
aa(lp401
S'HCDR3'
p402
aS'355'
p403
aF342553992.889
aa(lp404
S'HCDR3'
p405
aS'356'
p406
aF14479.8411
aa(lp407
S'HCDR3'
p408
aS'357'
p409
aF51736.626499999998
aa(lp410
S'KCDR3'
p411
aS'78'
p412
aF9220.0296999999991
aa(lp413
S'HCDR3'
p414
aS'398'
p415
aF9999999989.0511017
aa(lp416
S'HCDR3'
p417
aS'399'
p418
aF9999999964.8653011
aa(lp419
S'HJ'
p420
aS'5'
aF0
aa(lp421
S'HJ'
p422
aS'4'
aF0
aa(lp423
S'HJ'
p424
aS'3'
aF0
aa(lp425
S'HJ'
p426
aS'2'
aF0
aa(lp427
S'HJ'
p428
aS'1'
aF0
aa(lp429
S'LJ'
p430
aS'6'
aF0
aa(lp431
S'KCDR3'
p432
aS'82'
p433
aF-7.2143000000000006
aa(lp434
S'HCDR3'
p435
aS'394'
p436
aF9999999872.6394005
aa(lp437
S'KCDR3'
p438
aS'80'
p439
aF-2.3050000000000002
aa(lp440
S'KCDR3'
p441
aS'81'
p442
aF-12.222900000000001
aa(lp443
S'KCDR3'
p444
aS'86'
p445
aF92.60929999999999
aa(lp446
S'KCDR3'
p447
aS'87'
p448
aF2.2675999999999998
aa(lp449
S'KCDR3'
p450
aS'179'
p451
aF-2.0024999999999999
aa(lp452
S'HCDR3'
p453
aS'395'
p454
aF1235.2725
aa(lp455
S'KCDR3'
p456
aS'191'
p457
aF1.4995000000000003
aa(lp458
S'KCDR3'
p459
aS'176'
p460
aF4.0282999999999998
aa(lp461
S'KCDR3'
p462
aS'175'
p463
aF0.66900000000000004
aa(lp464
S'KCDR3'
p465
aS'174'
p466
aF-0.55689999999999995
aa(lp467
S'KCDR3'
p468
aS'173'
p469
aF0.25600000000000023
aa(lp470
S'KCDR3'
p471
aS'172'
p472
aF-0.24879999999999969
aa(lp473
S'KCDR3'
p474
aS'171'
p475
aF190.9913
aa(lp476
S'KCDR3'
p477
aS'170'
p478
aF20.1721
aa(lp479
S'KCDR3'
p480
aS'70'
p481
aF314.17770000000002
aa(lp482
S'KCDR3'
p483
aS'77'
p484
aF28.440199999999997
aa(lp485
S'KCDR3'
p486
aS'76'
p487
aF47.376800000000003
aa(lp488
S'HCDR3'
p489
aS'127'
p490
aF830239.96409999998
aa(lp491
S'HCDR3'
p492
aS'126'
p493
aF-0.66559999999999997
aa(lp494
S'HCDR3'
p495
aS'125'
p496
aF-1.5435000000000001
aa(lp497
S'HCDR3'
p498
aS'124'
p499
aF2.2570999999999999
aa(lp500
S'HCDR3'
p501
aS'123'
p502
aF-1.3298000000000001
aa(lp503
S'HCDR3'
p504
aS'122'
p505
aF-0.87719999999999998
aa(lp506
S'HCDR3'
p507
aS'121'
p508
aF-2.7043999999999997
aa(lp509
S'HCDR3'
p510
aS'120'
p511
aF-1.7738
aa(lp512
S'KCDR3'
p513
aS'74'
p514
aF11.7781
aa(lp515
S'HCDR3'
p516
aS'425'
p517
aF9999999905.8288002
aa(lp518
S'HCDR3'
p519
aS'129'
p520
aF1.0274000000000001
aa(lp521
S'HCDR3'
p522
aS'128'
p523
aF-2.6577000000000002
aa(lp524
S'HCDR3'
p525
aS'301'
p526
aF214.51310000000001
aa(lp527
S'HV'
p528
aS'140'
p529
aF1.2267999999999999
aa(lp530
S'HV'
p531
aS'141'
p532
aF1.1952
aa(lp533
S'KCDR3'
p534
aS'24'
p535
aF-1.1924000000000001
aa(lp536
S'HV'
p537
aS'9'
aF0.76060000000000005
aa(lp538
S'HV'
p539
aS'8'
aF423521.47030000004
aa(lp540
S'KCDR3'
p541
aS'19'
p542
aF-0.21889999999999998
aa(lp543
S'KCDR3'
p544
aS'18'
p545
aF13.254199999999999
aa(lp546
S'KCDR3'
p547
aS'25'
p548
aF-4.8345000000000002
aa(lp549
S'HV'
p550
aS'3'
aF0.33440000000000003
aa(lp551
S'HV'
p552
aS'2'
aF-0.12759999999999999
aa(lp553
S'HV'
p554
aS'1'
aF-0.14200000000000002
aa(lp555
S'KCDR3'
p556
aS'16'
p557
aF9.4322000000000017
aa(lp558
S'HV'
p559
aS'7'
aF0.37459999999999999
aa(lp560
S'HV'
p561
aS'6'
aF0.45469999999999999
aa(lp562
S'HV'
p563
aS'5'
aF0.43790000000000001
aa(lp564
S'HV'
p565
aS'4'
aF0.55820000000000003
aa(lp566
S'HCDR3'
p567
aS'220'
p568
aF-2.4545000000000003
aa(lp569
S'HCDR3'
p570
aS'221'
p571
aF10.9328
aa(lp572
S'HCDR3'
p573
aS'222'
p574
aF0.75639999999999996
aa(lp575
S'HCDR3'
p576
aS'223'
p577
aF-1.1011
aa(lp578
S'HCDR3'
p579
aS'224'
p580
aF-1.2495000000000001
aa(lp581
S'HCDR3'
p582
aS'225'
p583
aF0.33309999999999995
aa(lp584
S'HCDR3'
p585
aS'226'
p586
aF-5.3986999999999998
aa(lp587
S'HCDR3'
p588
aS'227'
p589
aF-6.0605000000000002
aa(lp590
S'HCDR3'
p591
aS'228'
p592
aF-6.5484
aa(lp593
S'HCDR3'
p594
aS'229'
p595
aF63122.103499999997
aa(lp596
S'KCDR3'
p597
aS'83'
p598
aF-3.4719000000000002
aa(lp599
S'LCDR3'
p600
aS'32'
p601
aF9.1377999999999986
aa(lp602
S'LCDR3'
p603
aS'33'
p604
aF6.7020000000000008
aa(lp605
S'LCDR3'
p606
aS'30'
p607
aF-1.5802
aa(lp608
S'LCDR3'
p609
aS'31'
p610
aF-3.4375
aa(lp611
S'LCDR3'
p612
aS'36'
p613
aF9.0609999999999999
aa(lp614
S'LV'
p615
aS'9'
aF3617956.6369000003
aa(lp616
S'LCDR3'
p617
aS'34'
p618
aF2.3248999999999995
aa(lp619
S'LCDR3'
p620
aS'35'
p621
aF-0.021199999999999886
aa(lp622
S'KCDR3'
p623
aS'28'
p624
aF8383.027900000001
aa(lp625
S'LCDR3'
p626
aS'38'
p627
aF0.085999999999999854
aa(lp628
S'LV'
p629
aS'8'
aF3631012.3735000002
aa(lp630
S'KCDR3'
p631
aS'29'
p632
aF0.2793000000000001
aa(lp633
S'KCDR3'
p634
aS'68'
p635
aF63.327500000000008
aa(lp636
S'HCDR3'
p637
aS'90'
p638
aF-1.7932999999999999
aa(lp639
S'HCDR3'
p640
aS'91'
p641
aF163.917
aa(lp642
S'KCDR3'
p643
aS'60'
p644
aF3.4165000000000001
aa(lp645
S'KCDR3'
p646
aS'61'
p647
aF1.5410999999999999
aa(lp648
S'KCDR3'
p649
aS'62'
p650
aF-8.200800000000001
aa(lp651
S'KCDR3'
p652
aS'63'
p653
aF91.510599999999997
aa(lp654
S'KCDR3'
p655
aS'64'
p656
aF-15.958600000000001
aa(lp657
S'HCDR3'
p658
aS'92'
p659
aF-0.55200000000000005
aa(lp660
S'KCDR3'
p661
aS'66'
p662
aF5.860199999999999
aa(lp663
S'KCDR3'
p664
aS'67'
p665
aF2.3516999999999997
aa(lp666
S'HCDR3'
p667
aS'93'
p668
aF-0.65689999999999993
aa(lp669
S'HCDR3'
p670
aS'332'
p671
aF14243.0949
aa(lp672
S'HCDR3'
p673
aS'333'
p674
aF-7.5775000000000006
aa(lp675
S'LCDR3'
p676
aS'8'
aF-5.3758999999999997
aa(lp677
S'LCDR3'
p678
aS'9'
aF-1.5021
aa(lp679
S'HCDR3'
p680
aS'330'
p681
aF3770603.1300999997
aa(lp682
S'LCDR3'
p683
aS'2'
aF-4.5149999999999997
aa(lp684
S'LCDR3'
p685
aS'3'
aF-0.66910000000000003
aa(lp686
S'HCDR3'
p687
aS'97'
p688
aF0.32889999999999997
aa(lp689
S'LCDR3'
p690
aS'6'
aF-0.061099999999999988
aa(lp691
S'LCDR3'
p692
aS'7'
aF-2.4849999999999999
aa(lp693
S'LCDR3'
p694
aS'4'
aF3.0227999999999997
aa(lp695
S'LCDR3'
p696
aS'5'
aF2.7753000000000001
aa(lp697
S'HCDR3'
p698
aS'314'
p699
aF675473680.83220005
aa(lp700
S'HCDR3'
p701
aS'315'
p702
aF-4.8833000000000002
aa(lp703
S'HCDR3'
p704
aS'316'
p705
aF10000000077.204601
aa(lp706
S'HCDR3'
p707
aS'317'
p708
aF805.98389999999995
aa(lp709
S'HCDR3'
p710
aS'310'
p711
aF557.0145
aa(lp712
S'HCDR3'
p713
aS'311'
p714
aF0.52260000000000018
aa(lp715
S'HCDR3'
p716
aS'312'
p717
aF-4.7166999999999994
aa(lp718
S'HCDR3'
p719
aS'313'
p720
aF27.956499999999998
aa(lp721
S'KCDR3'
p722
aS'198'
p723
aF67.472399999999993
aa(lp724
S'HCDR3'
p725
aS'318'
p726
aF-8.3498999999999999
aa(lp727
S'HCDR3'
p728
aS'319'
p729
aF88680842.239100009
aa(lp730
S'LV'
p731
aS'19'
p732
aF9999999796.4573002
aa(lp733
S'HV'
p734
aS'97'
p735
aF-2.0690999999999997
aa(lp736
S'HV'
p737
aS'96'
p738
aF-0.078500000000000014
aa(lp739
S'HV'
p740
aS'95'
p741
aF0.21069999999999997
aa(lp742
S'HV'
p743
aS'94'
p744
aF-0.16720000000000002
aa(lp745
S'HV'
p746
aS'93'
p747
aF3.1507000000000001
aa(lp748
S'HV'
p749
aS'92'
p750
aF1.9512000000000003
aa(lp751
S'HV'
p752
aS'91'
p753
aF2.1454
aa(lp754
S'HV'
p755
aS'90'
p756
aF2.2507000000000001
aa(lp757
S'KCDR3'
p758
aS'133'
p759
aF-0.26069999999999993
aa(lp760
S'KCDR3'
p761
aS'132'
p762
aF-0.75540000000000007
aa(lp763
S'KCDR3'
p764
aS'131'
p765
aF-4.9634999999999998
aa(lp766
S'KCDR3'
p767
aS'130'
p768
aF1.4710999999999999
aa(lp769
S'KCDR3'
p770
aS'137'
p771
aF4.7916000000000007
aa(lp772
S'KCDR3'
p773
aS'136'
p774
aF-2.1298000000000004
aa(lp775
S'HV'
p776
aS'99'
p777
aF0.23209999999999997
aa(lp778
S'HV'
p779
aS'98'
p780
aF-2.2277
aa(lp781
S'HCDR3'
p782
aS'31'
p783
aF0.19640000000000002
aa(lp784
S'KCDR3'
p785
aS'134'
p786
aF0.77190000000000003
aa(lp787
S'HCDR3'
p788
aS'163'
p789
aF57239.959699999999
aa(lp790
S'HCDR3'
p791
aS'162'
p792
aF0.20439999999999992
aa(lp793
S'HCDR3'
p794
aS'161'
p795
aF7103.7055
aa(lp796
S'HCDR3'
p797
aS'160'
p798
aF-0.79390000000000005
aa(lp799
S'HCDR3'
p800
aS'167'
p801
aF15531.488299999999
aa(lp802
S'HCDR3'
p803
aS'166'
p804
aF-2.5295999999999998
aa(lp805
S'HCDR3'
p806
aS'165'
p807
aF43.1539
aa(lp808
S'HCDR3'
p809
aS'164'
p810
aF-12.128299999999999
aa(lp811
S'HCDR3'
p812
aS'169'
p813
aF74.134399999999999
aa(lp814
S'HCDR3'
p815
aS'168'
p816
aF1.9588000000000001
aa(lp817
S'HV'
p818
aS'22'
p819
aF0.53739999999999988
aa(lp820
S'HV'
p821
aS'23'
p822
aF0.78130000000000011
aa(lp823
S'HV'
p824
aS'20'
p825
aF-0.2601
aa(lp826
S'HV'
p827
aS'21'
p828
aF1.1792000000000002
aa(lp829
S'HV'
p830
aS'26'
p831
aF-4.9098000000000006
aa(lp832
S'HV'
p833
aS'27'
p834
aF-5.0232000000000001
aa(lp835
S'HCDR3'
p836
aS'367'
p837
aF9999999853.6554012
aa(lp838
S'HV'
p839
aS'25'
p840
aF-4.1776
aa(lp841
S'HCDR3'
p842
aS'369'
p843
aF698986247.95310009
aa(lp844
S'HCDR3'
p845
aS'368'
p846
aF-14.8931
aa(lp847
S'HV'
p848
aS'28'
p849
aF-13.799200000000001
aa(lp850
S'HV'
p851
aS'29'
p852
aF-13.8322
aa(lp853
S'KCDR3'
p854
aS'182'
p855
aF-0.45930000000000004
aa(lp856
S'KCDR3'
p857
aS'183'
p858
aF32150.1335
aa(lp859
S'KCDR3'
p860
aS'180'
p861
aF-0.31099999999999994
aa(lp862
S'KCDR3'
p863
aS'181'
p864
aF2.7290000000000001
aa(lp865
S'HCDR3'
p866
aS'189'
p867
aF-1.4472
aa(lp868
S'HCDR3'
p869
aS'188'
p870
aF-4.3404999999999996
aa(lp871
S'HCDR3'
p872
aS'181'
p873
aF65.013800000000003
aa(lp874
S'HCDR3'
p875
aS'180'
p876
aF-2.9615
aa(lp877
S'HCDR3'
p878
aS'183'
p879
aF1.9749999999999999
aa(lp880
S'HCDR3'
p881
aS'182'
p882
aF9999999913.2514
aa(lp883
S'HCDR3'
p884
aS'185'
p885
aF-0.8657999999999999
aa(lp886
S'HCDR3'
p887
aS'184'
p888
aF-1.4074
aa(lp889
S'HCDR3'
p890
aS'187'
p891
aF-0.33550000000000002
aa(lp892
S'HCDR3'
p893
aS'186'
p894
aF-12.830399999999999
aa(lp895
S'HCDR3'
p896
aS'268'
p897
aF-0.66379999999999995
aa(lp898
S'HCDR3'
p899
aS'269'
p900
aF-2.2527999999999997
aa(lp901
S'HCDR3'
p902
aS'264'
p903
aF25.961199999999998
aa(lp904
S'HCDR3'
p905
aS'265'
p906
aF2.3021000000000003
aa(lp907
S'HCDR3'
p908
aS'266'
p909
aF-2.059400000000001
aa(lp910
S'HCDR3'
p911
aS'267'
p912
aF1267.7644
aa(lp913
S'HCDR3'
p914
aS'260'
p915
aF50.349100000000007
aa(lp916
S'HCDR3'
p917
aS'261'
p918
aF163.04670000000002
aa(lp919
S'HCDR3'
p920
aS'262'
p921
aF266742084.4928
aa(lp922
S'HCDR3'
p923
aS'263'
p924
aF369.98399999999998
aa(lp925
S'LV'
p926
aS'34'
p927
aF279642552.72139996
aa(lp928
S'HCDR3'
p929
aS'366'
p930
aF10000000100.569401
aa(lp931
S'HV'
p932
aS'117'
p933
aF2.3635999999999999
aa(lp934
S'HV'
p935
aS'116'
p936
aF1.6854
aa(lp937
S'HV'
p938
aS'115'
p939
aF1.4887999999999999
aa(lp940
S'HV'
p941
aS'114'
p942
aF-0.40410000000000001
aa(lp943
S'HV'
p944
aS'113'
p945
aF-1.0383
aa(lp946
S'HV'
p947
aS'112'
p948
aF-1.8542000000000001
aa(lp949
S'HV'
p950
aS'111'
p951
aF-0.6169
aa(lp952
S'HCDR3'
p953
aS'48'
p954
aF-0.68599999999999994
aa(lp955
S'HCDR3'
p956
aS'47'
p957
aF-1.6255999999999999
aa(lp958
S'HCDR3'
p959
aS'46'
p960
aF0.57320000000000004
aa(lp961
S'HCDR3'
p962
aS'45'
p963
aF-1.3688
aa(lp964
S'HCDR3'
p965
aS'44'
p966
aF-1.1113
aa(lp967
S'HCDR3'
p968
aS'43'
p969
aF-0.78059999999999996
aa(lp970
S'HCDR3'
p971
aS'42'
p972
aF0.8570000000000001
aa(lp973
S'HV'
p974
aS'119'
p975
aF2.2373000000000003
aa(lp976
S'HV'
p977
aS'118'
p978
aF2.5156999999999998
aa(lp979
S'KV'
p980
aS'32'
p981
aF84.563599999999994
aa(lp982
S'KV'
p983
aS'33'
p984
aF108.3725
aa(lp985
S'KV'
p986
aS'30'
p987
aF21236.129299999997
aa(lp988
S'KV'
p989
aS'31'
p990
aF386429.95620000002
aa(lp991
S'KV'
p992
aS'36'
p993
aF168.95930000000001
aa(lp994
S'KV'
p995
aS'37'
p996
aF481.65209999999996
aa(lp997
S'KV'
p998
aS'34'
p999
aF177.71889999999999
aa(lp1000
S'KV'
p1001
aS'35'
p1002
aF131.58439999999999
aa(lp1003
S'KV'
p1004
aS'38'
p1005
aF10000000013.435801
aa(lp1006
S'KV'
p1007
aS'39'
p1008
aF10000000626.9648
aa(lp1009
S'KCDR3'
p1010
aS'117'
p1011
aF-2.0577000000000001
aa(lp1012
S'HCDR3'
p1013
aS'219'
p1014
aF-1.8388
aa(lp1015
S'HCDR3'
p1016
aS'218'
p1017
aF-5.5540000000000003
aa(lp1018
S'KCDR3'
p1019
aS'26'
p1020
aF96.408699999999996
aa(lp1021
S'KCDR3'
p1022
aS'116'
p1023
aF-0.10880000000000001
aa(lp1024
S'KCDR3'
p1025
aS'20'
p1026
aF-2.3038000000000007
aa(lp1027
S'KCDR3'
p1028
aS'21'
p1029
aF-2.0221
aa(lp1030
S'KCDR3'
p1031
aS'22'
p1032
aF-3.9598999999999998
aa(lp1033
S'KCDR3'
p1034
aS'23'
p1035
aF1.3409
aa(lp1036
S'HCDR3'
p1037
aS'211'
p1038
aF102.04520000000001
aa(lp1039
S'HCDR3'
p1040
aS'210'
p1041
aF1313.3064999999999
aa(lp1042
S'HCDR3'
p1043
aS'213'
p1044
aF-2.0428000000000002
aa(lp1045
S'HCDR3'
p1046
aS'212'
p1047
aF-3.6560999999999999
aa(lp1048
S'HCDR3'
p1049
aS'215'
p1050
aF-0.44080000000000003
aa(lp1051
S'HCDR3'
p1052
aS'214'
p1053
aF415.93770000000001
aa(lp1054
S'HCDR3'
p1055
aS'217'
p1056
aF27.5199
aa(lp1057
S'HCDR3'
p1058
aS'216'
p1059
aF960.35529999999994
aa(lp1060
S'KCDR3'
p1061
aS'92'
p1062
aF-8.8224999999999998
aa(lp1063
S'KCDR3'
p1064
aS'128'
p1065
aF-13.563099999999999
aa(lp1066
S'HCDR3'
p1067
aS'59'
p1068
aF0.61759999999999993
aa(lp1069
S'KCDR3'
p1070
aS'119'
p1071
aF11.716800000000001
aa(lp1072
S'KCDR3'
p1073
aS'118'
p1074
aF-2.5491000000000001
aa(lp1075
S'KCDR3'
p1076
aS'124'
p1077
aF0.78500000000000014
aa(lp1078
S'HCDR3'
p1079
aS'8'
aF-0.019599999999999999
aa(lp1080
S'HCDR3'
p1081
aS'9'
aF-0.11019999999999999
aa(lp1082
S'HCDR3'
p1083
aS'6'
aF0.14389999999999997
aa(lp1084
S'HCDR3'
p1085
aS'7'
aF0.115
aa(lp1086
S'HCDR3'
p1087
aS'4'
aF-0.0018
aa(lp1088
S'HCDR3'
p1089
aS'5'
aF0.039099999999999996
aa(lp1090
S'HCDR3'
p1091
aS'2'
aF-0.063700000000000007
aa(lp1092
S'HCDR3'
p1093
aS'3'
aF-0.097799999999999998
aa(lp1094
S'HCDR3'
p1095
aS'1'
aF-0.1668
aa(lp1096
S'KCDR3'
p1097
aS'1'
aF1.5088999999999999
aa(lp1098
S'HV'
p1099
aS'59'
p1100
aF-0.5787000000000001
aa(lp1101
S'HV'
p1102
aS'58'
p1103
aF2.5916000000000001
aa(lp1104
S'KCDR3'
p1105
aS'5'
aF-10.6226
aa(lp1106
S'KCDR3'
p1107
aS'4'
aF3.2124999999999995
aa(lp1108
S'KCDR3'
p1109
aS'7'
aF-6.1501000000000001
aa(lp1110
S'KCDR3'
p1111
aS'6'
aF6.3632
aa(lp1112
S'HV'
p1113
aS'53'
p1114
aF1.9665999999999999
aa(lp1115
S'HV'
p1116
aS'52'
p1117
aF2.0116999999999998
aa(lp1118
S'HV'
p1119
aS'51'
p1120
aF0.12039999999999999
aa(lp1121
S'HV'
p1122
aS'50'
p1123
aF2.7528000000000001
aa(lp1124
S'HV'
p1125
aS'57'
p1126
aF1.7576000000000003
aa(lp1127
S'HV'
p1128
aS'56'
p1129
aF1.7864000000000002
aa(lp1130
S'HV'
p1131
aS'55'
p1132
aF1.9273999999999998
aa(lp1133
S'HV'
p1134
aS'54'
p1135
aF2.6576
aa(lp1136
S'LCDR3'
p1137
aS'37'
p1138
aF7.0926
aa(lp1139
S'HCDR3'
p1140
aS'329'
p1141
aF61884.909299999999
aa(lp1142
S'HCDR3'
p1143
aS'328'
p1144
aF1535281439.0569999
aa(lp1145
S'HCDR3'
p1146
aS'325'
p1147
aF8057.6406000000006
aa(lp1148
S'HCDR3'
p1149
aS'324'
p1150
aF26.813099999999999
aa(lp1151
S'HCDR3'
p1152
aS'327'
p1153
aF6119239.6002000002
aa(lp1154
S'HCDR3'
p1155
aS'326'
p1156
aF273.65890000000002
aa(lp1157
S'HCDR3'
p1158
aS'321'
p1159
aF-3.3530000000000002
aa(lp1160
S'HCDR3'
p1161
aS'320'
p1162
aF5535263806.0291004
aa(lp1163
S'HCDR3'
p1164
aS'323'
p1165
aF8773341226.6177998
aa(lp1166
S'HCDR3'
p1167
aS'322'
p1168
aF9999999964.3479004
aa(lp1169
S'HCDR3'
p1170
aS'145'
p1171
aF-1.9695
aa(lp1172
S'HCDR3'
p1173
aS'144'
p1174
aF15.8681
aa(lp1175
S'HCDR3'
p1176
aS'147'
p1177
aF-2.4352
aa(lp1178
S'HCDR3'
p1179
aS'146'
p1180
aF53.061399999999999
aa(lp1181
S'HCDR3'
p1182
aS'417'
p1183
aF10000000473.8876
aa(lp1184
S'KCDR3'
p1185
aS'35'
p1186
aF-0.82889999999999997
aa(lp1187
S'KCDR3'
p1188
aS'3'
aF-0.47879999999999995
aa(lp1189
S'HCDR3'
p1190
aS'140'
p1191
aF0.39209999999999995
aa(lp1192
S'KCDR3'
p1193
aS'160'
p1194
aF-1.4459
aa(lp1195
S'KCDR3'
p1196
aS'161'
p1197
aF-1.8395000000000001
aa(lp1198
S'KCDR3'
p1199
aS'162'
p1200
aF-0.59720000000000006
aa(lp1201
S'KCDR3'
p1202
aS'96'
p1203
aF2.2363
aa(lp1204
S'KCDR3'
p1205
aS'164'
p1206
aF1175.3247000000001
aa(lp1207
S'HCDR3'
p1208
aS'415'
p1209
aF10000000048.4473
aa(lp1210
S'KCDR3'
p1211
aS'93'
p1212
aF1.6082000000000001
aa(lp1213
S'KCDR3'
p1214
aS'167'
p1215
aF44.934100000000001
aa(lp1216
S'KCDR3'
p1217
aS'168'
p1218
aF52.342199999999998
aa(lp1219
S'KCDR3'
p1220
aS'169'
p1221
aF6017.6791000000003
aa(lp1222
S'HCDR3'
p1223
aS'414'
p1224
aF4111708141.8989997
aa(lp1225
S'KCDR3'
p1226
aS'99'
p1227
aF-0.78239999999999998
aa(lp1228
S'KCDR3'
p1229
aS'98'
p1230
aF-1.2748999999999999
aa(lp1231
S'HCDR3'
p1232
aS'138'
p1233
aF11399.297799999998
aa(lp1234
S'HCDR3'
p1235
aS'139'
p1236
aF28059.506300000001
aa(lp1237
S'KCDR3'
p1238
aS'69'
p1239
aF133.26399999999998
aa(lp1240
S'HCDR3'
p1241
aS'130'
p1242
aF0.49260000000000015
aa(lp1243
S'HCDR3'
p1244
aS'131'
p1245
aF80773.436600000001
aa(lp1246
S'HCDR3'
p1247
aS'132'
p1248
aF-1.0592000000000001
aa(lp1249
S'HCDR3'
p1250
aS'133'
p1251
aF-4.4279999999999999
aa(lp1252
S'HCDR3'
p1253
aS'134'
p1254
aF-3.0757000000000003
aa(lp1255
S'HCDR3'
p1256
aS'135'
p1257
aF-3.1842000000000001
aa(lp1258
S'HCDR3'
p1259
aS'136'
p1260
aF-1.4436
aa(lp1261
S'HCDR3'
p1262
aS'137'
p1263
aF-0.027300000000000102
aa(lp1264
S'HCDR3'
p1265
aS'426'
p1266
aF9999999871.0023003
aa(lp1267
S'HCDR3'
p1268
aS'427'
p1269
aF9999999650.8324013
aa(lp1270
S'HCDR3'
p1271
aS'424'
p1272
aF10000000040.7285
aa(lp1273
S'HV'
p1274
aS'47'
p1275
aF2.0617999999999999
aa(lp1276
S'HCDR3'
p1277
aS'422'
p1278
aF9999999451.5656013
aa(lp1279
S'HCDR3'
p1280
aS'423'
p1281
aF10000000094.052601
aa(lp1282
S'HCDR3'
p1283
aS'420'
p1284
aF1300.9307999999999
aa(lp1285
S'HCDR3'
p1286
aS'421'
p1287
aF27349102.532099999
aa(lp1288
S'HCDR3'
p1289
aS'428'
p1290
aF10000000324.671101
aa(lp1291
S'LV'
p1292
aS'17'
p1293
aF9999999759.6362
aa(lp1294
S'LV'
p1295
aS'16'
p1296
aF9999999833.0212002
aa(lp1297
S'KV'
p1298
aS'24'
p1299
aF18953.8223
aa(lp1300
S'KCDR3'
p1301
aS'14'
p1302
aF45.6875
aa(lp1303
S'LV'
p1304
aS'7'
aF3917240.9421999999
aa(lp1305
S'HV'
p1306
aS'48'
p1307
aF8.3680000000000003
aa(lp1308
S'HV'
p1309
aS'49'
p1310
aF2.742
aa(lp1311
S'HCDR3'
p1312
aS'255'
p1313
aF-10.6769
aa(lp1314
S'HCDR3'
p1315
aS'254'
p1316
aF-6.5304000000000002
aa(lp1317
S'HCDR3'
p1318
aS'257'
p1319
aF487279999.85529995
aa(lp1320
S'HCDR3'
p1321
aS'256'
p1322
aF-1.8151999999999999
aa(lp1323
S'HCDR3'
p1324
aS'251'
p1325
aF-1.1757
aa(lp1326
S'HCDR3'
p1327
aS'250'
p1328
aF9999999905.3757
aa(lp1329
S'HCDR3'
p1330
aS'253'
p1331
aF54.709600000000002
aa(lp1332
S'HCDR3'
p1333
aS'252'
p1334
aF-5.3689999999999998
aa(lp1335
S'HCDR3'
p1336
aS'259'
p1337
aF317.6361
aa(lp1338
S'HCDR3'
p1339
aS'258'
p1340
aF-1.2934000000000001
aa(lp1341
S'KCDR3'
p1342
aS'11'
p1343
aF7.7446000000000002
aa(lp1344
S'HCDR3'
p1345
aS'36'
p1346
aF0.45750000000000002
aa(lp1347
S'HCDR3'
p1348
aS'37'
p1349
aF0.15220000000000006
aa(lp1350
S'HCDR3'
p1351
aS'34'
p1352
aF0.59119999999999995
aa(lp1353
S'HCDR3'
p1354
aS'35'
p1355
aF1.3674999999999999
aa(lp1356
S'HCDR3'
p1357
aS'32'
p1358
aF-0.17400000000000002
aa(lp1359
S'HCDR3'
p1360
aS'33'
p1361
aF-0.34520000000000001
aa(lp1362
S'HV'
p1363
aS'128'
p1364
aF-0.94740000000000002
aa(lp1365
S'HV'
p1366
aS'129'
p1367
aF-0.2344
aa(lp1368
S'HV'
p1369
aS'126'
p1370
aF-0.96120000000000005
aa(lp1371
S'HV'
p1372
aS'127'
p1373
aF-1.3513999999999999
aa(lp1374
S'HV'
p1375
aS'124'
p1376
aF-0.74980000000000002
aa(lp1377
S'HV'
p1378
aS'125'
p1379
aF-0.54549999999999998
aa(lp1380
S'HV'
p1381
aS'122'
p1382
aF2.5388999999999999
aa(lp1383
S'HV'
p1384
aS'123'
p1385
aF0.10479999999999998
aa(lp1386
S'HV'
p1387
aS'120'
p1388
aF2.8603000000000001
aa(lp1389
S'HV'
p1390
aS'121'
p1391
aF2.2925
aa(lp1392
S'LCDR3'
p1393
aS'25'
p1394
aF-1.3593
aa(lp1395
S'LCDR3'
p1396
aS'24'
p1397
aF-1.0212999999999999
aa(lp1398
S'LV'
p1399
aS'5'
aF3656926.5991000002
aa(lp1400
S'LCDR3'
p1401
aS'26'
p1402
aF1.8481000000000001
aa(lp1403
S'LCDR3'
p1404
aS'21'
p1405
aF-1.6869999999999998
aa(lp1406
S'LCDR3'
p1407
aS'20'
p1408
aF0.062300000000000022
aa(lp1409
S'LCDR3'
p1410
aS'23'
p1411
aF0.25210000000000043
aa(lp1412
S'LCDR3'
p1413
aS'22'
p1414
aF-1.6080000000000001
aa(lp1415
S'LCDR3'
p1416
aS'29'
p1417
aF-0.88149999999999995
aa(lp1418
S'LCDR3'
p1419
aS'28'
p1420
aF0.093699999999999894
aa(lp1421
S'KV'
p1422
aS'49'
p1423
aF10000000255.577501
aa(lp1424
S'KV'
p1425
aS'48'
p1426
aF10000000143.711
aa(lp1427
S'KV'
p1428
aS'43'
p1429
aF10000000039.135
aa(lp1430
S'KCDR3'
p1431
aS'72'
p1432
aF-8.1799999999999997
aa(lp1433
S'KV'
p1434
aS'41'
p1435
aF10000000298.4944
aa(lp1436
S'KV'
p1437
aS'40'
p1438
aF10000000005.190802
aa(lp1439
S'KV'
p1440
aS'47'
p1441
aF10000000267.651402
aa(lp1442
S'KV'
p1443
aS'46'
p1444
aF9999999824.5763016
aa(lp1445
S'KV'
p1446
aS'45'
p1447
aF10000000139.183901
aa(lp1448
S'KV'
p1449
aS'44'
p1450
aF10000000361.5485
aa(lp1451
S'HCDR3'
p1452
aS'374'
p1453
aF1.1751999999999998
aa(lp1454
S'HV'
p1455
aS'18'
p1456
aF-0.18339999999999998
aa(lp1457
S'LV'
p1458
aS'3'
aF1068112508.2532001
aa(lp1459
S'HV'
p1460
aS'15'
p1461
aF-0.52059999999999995
aa(lp1462
S'HCDR3'
p1463
aS'379'
p1464
aF37.508000000000003
aa(lp1465
S'KJ'
p1466
aS'1'
aF0
aa(lp1467
S'LV'
p1468
aS'2'
aF1198011693.1201
aa(lp1469
S'KJ'
p1470
aS'2'
aF0
aa(lp1471
S'HV'
p1472
aS'80'
p1473
aF2.2511999999999999
aa(lp1474
S'HV'
p1475
aS'81'
p1476
aF-0.45550000000000002
aa(lp1477
S'HV'
p1478
aS'82'
p1479
aF-0.5887
aa(lp1480
S'HV'
p1481
aS'83'
p1482
aF0.32779999999999998
aa(lp1483
S'HV'
p1484
aS'84'
p1485
aF-0.35239999999999999
aa(lp1486
S'HV'
p1487
aS'85'
p1488
aF-0.35499999999999998
aa(lp1489
S'HV'
p1490
aS'86'
p1491
aF-0.33350000000000002
aa(lp1492
S'HV'
p1493
aS'87'
p1494
aF1.7345000000000002
aa(lp1495
S'HV'
p1496
aS'88'
p1497
aF0.69469999999999998
aa(lp1498
S'HV'
p1499
aS'89'
p1500
aF0.1532
aa(lp1501
S'KCDR3'
p1502
aS'126'
p1503
aF-0.62050000000000005
aa(lp1504
S'KCDR3'
p1505
aS'127'
p1506
aF-7.0092999999999996
aa(lp1507
S'KCDR3'
p1508
aS'120'
p1509
aF-0.95160000000000045
aa(lp1510
S'KCDR3'
p1511
aS'121'
p1512
aF2057.6448999999998
aa(lp1513
S'KCDR3'
p1514
aS'122'
p1515
aF-2.0841000000000003
aa(lp1516
S'KCDR3'
p1517
aS'123'
p1518
aF11.989699999999999
aa(lp1519
S'LV'
p1520
aS'1'
aF722039.71409999998
aa(lp1521
S'HCDR3'
p1522
aS'174'
p1523
aF-3.8401000000000001
aa(lp1524
S'HCDR3'
p1525
aS'175'
p1526
aF6.2955999999999994
aa(lp1527
S'HCDR3'
p1528
aS'176'
p1529
aF53744636.318700001
aa(lp1530
S'HCDR3'
p1531
aS'177'
p1532
aF-5.2301000000000002
aa(lp1533
S'HCDR3'
p1534
aS'170'
p1535
aF-2.7509999999999999
aa(lp1536
S'HCDR3'
p1537
aS'171'
p1538
aF2466.9845
aa(lp1539
S'HCDR3'
p1540
aS'172'
p1541
aF-0.4375
aa(lp1542
S'HCDR3'
p1543
aS'173'
p1544
aF-2.2594999999999996
aa(lp1545
S'KCDR3'
p1546
aS'34'
p1547
aF-1.9581999999999999
aa(lp1548
S'HCDR3'
p1549
aS'178'
p1550
aF-5.3635999999999999
aa(lp1551
S'HCDR3'
p1552
aS'179'
p1553
aF5.5957000000000008
aa(lp1554
S'HCDR3'
p1555
aS'372'
p1556
aF128924416.0616
aa(lp1557
S'HCDR3'
p1558
aS'373'
p1559
aF86987113.696899995
aa(lp1560
S'HCDR3'
p1561
aS'370'
p1562
aF770096811.74440002
aa(lp1563
S'HCDR3'
p1564
aS'371'
p1565
aF9999999994.9465008
aa(lp1566
S'HCDR3'
p1567
aS'376'
p1568
aF9999999961.1090012
aa(lp1569
S'HCDR3'
p1570
aS'377'
p1571
aF135326743.75050002
aa(lp1572
S'HV'
p1573
aS'19'
p1574
aF-3.3197999999999999
aa(lp1575
S'HCDR3'
p1576
aS'375'
p1577
aF5267.7340999999997
aa(lp1578
S'HV'
p1579
aS'17'
p1580
aF1.0441
aa(lp1581
S'HV'
p1582
aS'16'
p1583
aF-0.34999999999999998
aa(lp1584
S'HCDR3'
p1585
aS'378'
p1586
aF-1.8005000000000004
aa(lp1587
S'HV'
p1588
aS'14'
p1589
aF-0.65389999999999993
aa(lp1590
S'HV'
p1591
aS'13'
p1592
aF0.82140000000000013
aa(lp1593
S'HV'
p1594
aS'12'
p1595
aF-0.13159999999999999
aa(lp1596
S'HV'
p1597
aS'11'
p1598
aF-0.56359999999999999
aa(lp1599
S'HV'
p1600
aS'10'
p1601
aF0.91049999999999998
aa(lp1602
S'HCDR3'
p1603
aS'198'
p1604
aF-0.59610000000000007
aa(lp1605
S'HCDR3'
p1606
aS'199'
p1607
aF0.3407
aa(lp1608
S'HCDR3'
p1609
aS'192'
p1610
aF990.93399999999997
aa(lp1611
S'HCDR3'
p1612
aS'193'
p1613
aF259485.86289999998
aa(lp1614
S'HCDR3'
p1615
aS'190'
p1616
aF-3.8755999999999999
aa(lp1617
S'HCDR3'
p1618
aS'191'
p1619
aF-2.3054999999999999
aa(lp1620
S'HCDR3'
p1621
aS'196'
p1622
aF0.62059999999999993
aa(lp1623
S'HCDR3'
p1624
aS'197'
p1625
aF-0.93700000000000006
aa(lp1626
S'HCDR3'
p1627
aS'194'
p1628
aF0.25910000000000011
aa(lp1629
S'HCDR3'
p1630
aS'195'
p1631
aF-1.8653999999999999
aa(lp1632
S'KCDR3'
p1633
aS'159'
p1634
aF-6.6564999999999994
aa(lp1635
S'KCDR3'
p1636
aS'158'
p1637
aF-5.4045000000000005
aa(lp1638
S'KCDR3'
p1639
aS'151'
p1640
aF0.81599999999999984
aa(lp1641
S'KCDR3'
p1642
aS'150'
p1643
aF-4.6346000000000007
aa(lp1644
S'KCDR3'
p1645
aS'153'
p1646
aF-7.5305999999999997
aa(lp1647
S'KCDR3'
p1648
aS'152'
p1649
aF-6.5922000000000001
aa(lp1650
S'KCDR3'
p1651
aS'155'
p1652
aF2.5425000000000004
aa(lp1653
S'KCDR3'
p1654
aS'154'
p1655
aF-0.96550000000000002
aa(lp1656
S'KCDR3'
p1657
aS'157'
p1658
aF-0.39280000000000004
aa(lp1659
S'KCDR3'
p1660
aS'156'
p1661
aF-0.92559999999999998
aa(lp1662
S'HCDR3'
p1663
aS'291'
p1664
aF-2.2141999999999999
aa(lp1665
S'HCDR3'
p1666
aS'290'
p1667
aF1.2201
aa(lp1668
S'HCDR3'
p1669
aS'293'
p1670
aF9999999990.5244007
aa(lp1671
S'HCDR3'
p1672
aS'292'
p1673
aF-5.2582000000000004
aa(lp1674
S'HCDR3'
p1675
aS'295'
p1676
aF0.24909999999999988
aa(lp1677
S'HCDR3'
p1678
aS'294'
p1679
aF46906.147699999994
aa(lp1680
S'HCDR3'
p1681
aS'297'
p1682
aF26685665.706599999
aa(lp1683
S'HCDR3'
p1684
aS'296'
p1685
aF1.2266000000000004
aa(lp1686
S'HCDR3'
p1687
aS'299'
p1688
aF3810780.8617000002
aa(lp1689
S'HCDR3'
p1690
aS'298'
p1691
aF117008769.84779999
aa(lp1692
S'HCDR3'
p1693
aS'101'
p1694
aF-1.6337999999999999
aa(lp1695
S'HCDR3'
p1696
aS'100'
p1697
aF-0.075899999999999995
aa(lp1698
S'HCDR3'
p1699
aS'103'
p1700
aF-7.3987999999999996
aa(lp1701
S'HCDR3'
p1702
aS'102'
p1703
aF0.60819999999999996
aa(lp1704
S'HCDR3'
p1705
aS'105'
p1706
aF-2.6025
aa(lp1707
S'HCDR3'
p1708
aS'104'
p1709
aF0.83860000000000001
aa(lp1710
S'HCDR3'
p1711
aS'107'
p1712
aF438.15160000000003
aa(lp1713
S'HCDR3'
p1714
aS'106'
p1715
aF36640.035500000005
aa(lp1716
S'HCDR3'
p1717
aS'109'
p1718
aF0.15100000000000002
aa(lp1719
S'HCDR3'
p1720
aS'108'
p1721
aF-1.3554999999999999
aa(lp1722
S'HCDR3'
p1723
aS'72'
p1724
aF-1.0710000000000002
aa(lp1725
S'HCDR3'
p1726
aS'73'
p1727
aF14.073899999999998
aa(lp1728
S'HCDR3'
p1729
aS'70'
p1730
aF-2.5091000000000001
aa(lp1731
S'HCDR3'
p1732
aS'71'
p1733
aF0.60559999999999992
aa(lp1734
S'HCDR3'
p1735
aS'76'
p1736
aF-0.067500000000000004
aa(lp1737
S'HCDR3'
p1738
aS'77'
p1739
aF0.2843
aa(lp1740
S'HCDR3'
p1741
aS'74'
p1742
aF-1.6216000000000002
aa(lp1743
S'HCDR3'
p1744
aS'75'
p1745
aF70.24430000000001
aa(lp1746
S'LV'
p1747
aS'26'
p1748
aF4192661304.6524
aa(lp1749
S'LV'
p1750
aS'27'
p1751
aF4900490445.8097
aa(lp1752
S'HCDR3'
p1753
aS'78'
p1754
aF-1.3823000000000001
aa(lp1755
S'HCDR3'
p1756
aS'79'
p1757
aF-0.62060000000000004
aa(lp1758
S'LV'
p1759
aS'22'
p1760
aF9999999785.9208012
aa(lp1761
S'LV'
p1762
aS'23'
p1763
aF363678575.2834
aa(lp1764
S'LV'
p1765
aS'20'
p1766
aF9999999787.9914017
aa(lp1767
S'KCDR3'
p1768
aS'73'
p1769
aF-7.6661000000000001
aa(lp1770
S'KCDR3'
p1771
aS'38'
p1772
aF3.3105000000000002
aa(lp1773
S'HCDR3'
p1774
aS'152'
p1775
aF-2.8839999999999999
aa(lp1776
S'KCDR3'
p1777
aS'13'
p1778
aF-5.5997000000000003
aa(lp1779
S'KCDR3'
p1780
aS'177'
p1781
aF3.9142999999999999
aa(lp1782
S'KCDR3'
p1783
aS'37'
p1784
aF-0.77499999999999991
aa(lp1785
S'KCDR3'
p1786
aS'36'
p1787
aF-0.27769999999999984
aa(lp1788
S'HCDR3'
p1789
aS'208'
p1790
aF0.0037000000000000366
aa(lp1791
S'HCDR3'
p1792
aS'209'
p1793
aF-3.2532000000000001
aa(lp1794
S'KCDR3'
p1795
aS'33'
p1796
aF8.2038000000000011
aa(lp1797
S'KCDR3'
p1798
aS'32'
p1799
aF4.9468000000000005
aa(lp1800
S'KCDR3'
p1801
aS'31'
p1802
aF1.4064999999999999
aa(lp1803
S'KCDR3'
p1804
aS'30'
p1805
aF2.2413999999999996
aa(lp1806
S'HCDR3'
p1807
aS'202'
p1808
aF-0.24770000000000003
aa(lp1809
S'HCDR3'
p1810
aS'203'
p1811
aF2118.8723
aa(lp1812
S'HCDR3'
p1813
aS'200'
p1814
aF9675.8837000000003
aa(lp1815
S'HCDR3'
p1816
aS'201'
p1817
aF16758.068300000003
aa(lp1818
S'HCDR3'
p1819
aS'206'
p1820
aF-0.37300000000000022
aa(lp1821
S'HCDR3'
p1822
aS'207'
p1823
aF-7.4399999999999995
aa(lp1824
S'HCDR3'
p1825
aS'204'
p1826
aF-3.0299
aa(lp1827
S'HCDR3'
p1828
aS'205'
p1829
aF2.3883999999999999
aa(lp1830
S'KJ'
p1831
aS'5'
aF0
aa(lp1832
S'KCDR3'
p1833
aS'79'
p1834
aF0.9910000000000001
aa(lp1835
S'HCDR3'
p1836
aS'401'
p1837
aF9999999954.7758999
aa(lp1838
S'KCDR3'
p1839
aS'95'
p1840
aF0.50190000000000001
aa(lp1841
S'LCDR3'
p1842
aS'18'
p1843
aF4.8289
aa(lp1844
S'LCDR3'
p1845
aS'19'
p1846
aF-1.5406
aa(lp1847
S'KCDR3'
p1848
aS'94'
p1849
aF-3.1664000000000003
aa(lp1850
S'LCDR3'
p1851
aS'14'
p1852
aF1.6183000000000001
aa(lp1853
S'LCDR3'
p1854
aS'15'
p1855
aF7.4137000000000004
aa(lp1856
S'LCDR3'
p1857
aS'16'
p1858
aF6.6934000000000005
aa(lp1859
S'LV'
p1860
aS'4'
aF483783821.33490002
aa(lp1861
S'LCDR3'
p1862
aS'10'
p1863
aF-0.50550000000000006
aa(lp1864
S'KCDR3'
p1865
aS'97'
p1866
aF0.49080000000000013
aa(lp1867
S'LCDR3'
p1868
aS'12'
p1869
aF-1.5281
aa(lp1870
S'LCDR3'
p1871
aS'13'
p1872
aF-3.0247999999999999
aa(lp1873
S'KCDR3'
p1874
aS'163'
p1875
aF3104.0003999999999
aa(lp1876
S'KCDR3'
p1877
aS'91'
p1878
aF1.1429999999999998
aa(lp1879
S'KCDR3'
p1880
aS'2'
aF0.0039000000000000146
aa(lp1881
S'KCDR3'
p1882
aS'188'
p1883
aF1.9689000000000003
aa(lp1884
S'KCDR3'
p1885
aS'90'
p1886
aF-6.4752000000000001
aa(lp1887
S'KCDR3'
p1888
aS'15'
p1889
aF-8.8596000000000004
aa(lp1890
S'KCDR3'
p1891
aS'166'
p1892
aF-1.3723000000000001
aa(lp1893
S'LJ'
p1894
aS'3'
aF0
aa(lp1895
S'LJ'
p1896
aS'2'
aF0
aa(lp1897
S'LJ'
p1898
aS'1'
aF0
aa(lp1899
S'KCDR3'
p1900
aS'189'
p1901
aF-1.8473999999999999
aa(lp1902
S'LJ'
p1903
aS'7'
aF0
aa(lp1904
S'KCDR3'
p1905
aS'139'
p1906
aF-1.6285999999999998
aa(lp1907
S'LJ'
p1908
aS'5'
aF0
aa(lp1909
S'LJ'
p1910
aS'4'
aF0
aa(lp1911
S'KCDR3'
p1912
aS'138'
p1913
aF1.0483
aa(lp1914
S'HCDR3'
p1915
aS'98'
p1916
aF-2.0869999999999997
aa(lp1917
S'HCDR3'
p1918
aS'99'
p1919
aF-1.7829999999999999
aa(lp1920
S'HCDR3'
p1921
aS'338'
p1922
aF7.8678999999999997
aa(lp1923
S'HCDR3'
p1924
aS'339'
p1925
aF340277885.14309996
aa(lp1926
S'HCDR3'
p1927
aS'336'
p1928
aF1.6966000000000006
aa(lp1929
S'HCDR3'
p1930
aS'337'
p1931
aF11203.1477
aa(lp1932
S'HCDR3'
p1933
aS'334'
p1934
aF13393.465100000001
aa(lp1935
S'HCDR3'
p1936
aS'335'
p1937
aF-7.593
aa(lp1938
S'HCDR3'
p1939
aS'94'
p1940
aF0.4728
aa(lp1941
S'HCDR3'
p1942
aS'95'
p1943
aF-2.8940999999999999
aa(lp1944
S'HCDR3'
p1945
aS'96'
p1946
aF-1.7263000000000002
aa(lp1947
S'HCDR3'
p1948
aS'331'
p1949
aF1058533.7396
aa(lp1950
S'KCDR3'
p1951
aS'101'
p1952
aF26.291499999999999
aa(lp1953
S'KCDR3'
p1954
aS'17'
p1955
aF2.7115999999999998
aa(lp1956
S'KCDR3'
p1957
aS'12'
p1958
aF0.95520000000000005
aa(lp1959
S'KCDR3'
p1960
aS'115'
p1961
aF0.24130000000000007
aa(lp1962
S'KCDR3'
p1963
aS'114'
p1964
aF2.9001999999999999
aa(lp1965
S'KV'
p1966
aS'8'
aF242.42419999999998
aa(lp1967
S'KV'
p1968
aS'9'
aF323638.50279999996
aa(lp1969
S'KCDR3'
p1970
aS'111'
p1971
aF11.062200000000001
aa(lp1972
S'KCDR3'
p1973
aS'135'
p1974
aF2.4154999999999998
aa(lp1975
S'KCDR3'
p1976
aS'113'
p1977
aF-0.74390000000000012
aa(lp1978
S'KCDR3'
p1979
aS'112'
p1980
aF-0.30049999999999999
aa(lp1981
S'KV'
p1982
aS'2'
aF224.62380000000002
aa(lp1983
S'KV'
p1984
aS'1'
aF257.56850000000003
aa(lp1985
S'KV'
p1986
aS'6'
aF93.455799999999996
aa(lp1987
S'KV'
p1988
aS'7'
aF225.29679999999999
aa(lp1989
S'KV'
p1990
aS'4'
aF226.70429999999999
aa(lp1991
S'KV'
p1992
aS'5'
aF155.28479999999999
aa(lp1993
S'HCDR3'
p1994
aS'419'
p1995
aF921731460.07319999
aa(lp1996
S'HCDR3'
p1997
aS'418'
p1998
aF9999999808.1451015
aa(lp1999
S'HCDR3'
p2000
aS'149'
p2001
aF-0.013000000000000005
aa(lp2002
S'HCDR3'
p2003
aS'148'
p2004
aF711.61390000000006
aa(lp2005
S'HCDR3'
p2006
aS'413'
p2007
aF2.5504999999999995
aa(lp2008
S'HCDR3'
p2009
aS'412'
p2010
aF5980454206.4223995
aa(lp2011
S'HCDR3'
p2012
aS'411'
p2013
aF10000000063.900801
aa(lp2014
S'HCDR3'
p2015
aS'410'
p2016
aF-3.6581999999999999
aa(lp2017
S'HCDR3'
p2018
aS'141'
p2019
aF148626.2323
aa(lp2020
S'HCDR3'
p2021
aS'416'
p2022
aF1561898200.7587001
aa(lp2023
S'HCDR3'
p2024
aS'143'
p2025
aF-5.6158000000000001
aa(lp2026
S'HCDR3'
p2027
aS'142'
p2028
aF-1.8851
aa(lp2029
S'HV'
p2030
aS'44'
p2031
aF0.53270000000000006
aa(lp2032
S'HV'
p2033
aS'45'
p2034
aF-0.85460000000000003
aa(lp2035
S'HV'
p2036
aS'46'
p2037
aF1.8323
aa(lp2038
S'HCDR3'
p2039
aS'388'
p2040
aF2430.7973999999999
aa(lp2041
S'HV'
p2042
aS'40'
p2043
aF-11.0892
aa(lp2044
S'HV'
p2045
aS'41'
p2046
aF0.82630000000000003
aa(lp2047
S'HV'
p2048
aS'42'
p2049
aF1.9936000000000003
aa(lp2050
S'HV'
p2051
aS'43'
p2052
aF1.6221000000000001
aa(lp2053
S'HCDR3'
p2054
aS'383'
p2055
aF116105140.57000001
aa(lp2056
S'HCDR3'
p2057
aS'382'
p2058
aF-4.5648
aa(lp2059
S'HCDR3'
p2060
aS'381'
p2061
aF219750141.2324
aa(lp2062
S'HCDR3'
p2063
aS'380'
p2064
aF2827746.1008000001
aa(lp2065
S'HCDR3'
p2066
aS'387'
p2067
aF6425472.6683999998
aa(lp2068
S'HCDR3'
p2069
aS'386'
p2070
aF618108.23670000001
aa(lp2071
S'HCDR3'
p2072
aS'385'
p2073
aF122296.00900000001
aa(lp2074
S'HCDR3'
p2075
aS'384'
p2076
aF1797746112.3827
aa(lp2077
S'KCDR3'
p2078
aS'178'
p2079
aF-0.075500000000000012
aa(lp2080
S'KCDR3'
p2081
aS'9'
aF55.228000000000002
aa(lp2082
S'KCDR3'
p2083
aS'27'
p2084
aF12.0009
aa(lp2085
S'KCDR3'
p2086
aS'10'
p2087
aF-0.82920000000000016
aa(lp2088
S'LV'
p2089
aS'28'
p2090
aF10798224.5441
aa(lp2091
S'LV'
p2092
aS'29'
p2093
aF9292381.8583000004
aa(lp2094
S'KCDR3'
p2095
aS'8'
aF45.551500000000004
aa(lp2096
S'HCDR3'
p2097
aS'246'
p2098
aF-10.4613
aa(lp2099
S'HCDR3'
p2100
aS'247'
p2101
aF-13.414899999999999
aa(lp2102
S'HCDR3'
p2103
aS'244'
p2104
aF28.296099999999999
aa(lp2105
S'HCDR3'
p2106
aS'245'
p2107
aF1499.4665
aa(lp2108
S'HCDR3'
p2109
aS'242'
p2110
aF273.84969999999998
aa(lp2111
S'HCDR3'
p2112
aS'243'
p2113
aF-2.9278000000000004
aa(lp2114
S'HCDR3'
p2115
aS'240'
p2116
aF13367.3783
aa(lp2117
S'HCDR3'
p2118
aS'241'
p2119
aF2.0220000000000002
aa(lp2120
S'LV'
p2121
aS'32'
p2122
aF1045791025.5718
aa(lp2123
S'KCDR3'
p2124
aS'71'
p2125
aF136.45169999999999
aa(lp2126
S'LV'
p2127
aS'24'
p2128
aF464798372.11769998
aa(lp2129
S'HCDR3'
p2130
aS'248'
p2131
aF267.78219999999999
aa(lp2132
S'HCDR3'
p2133
aS'249'
p2134
aF391.1463
aa(lp2135
S'HCDR3'
p2136
aS'29'
p2137
aF-0.033100000000000004
aa(lp2138
S'HCDR3'
p2139
aS'28'
p2140
aF0.031599999999999989
aa(lp2141
S'LV'
p2142
aS'25'
p2143
aF25317932.221000001
aa(lp2144
S'HCDR3'
p2145
aS'21'
p2146
aF-0.10540000000000001
aa(lp2147
S'HCDR3'
p2148
aS'20'
p2149
aF-0.055100000000000003
aa(lp2150
S'HCDR3'
p2151
aS'23'
p2152
aF-0.40339999999999998
aa(lp2153
S'HCDR3'
p2154
aS'22'
p2155
aF0.10049999999999999
aa(lp2156
S'HCDR3'
p2157
aS'25'
p2158
aF-1.4906999999999999
aa(lp2159
S'HCDR3'
p2160
aS'24'
p2161
aF1.2365999999999999
aa(lp2162
S'HCDR3'
p2163
aS'27'
p2164
aF-0.51259999999999994
aa(lp2165
S'HCDR3'
p2166
aS'26'
p2167
aF0.082400000000000001
aa(lp2168
S'HV'
p2169
aS'139'
p2170
aF1.1677999999999999
aa(lp2171
S'HV'
p2172
aS'138'
p2173
aF2.6635999999999997
aa(lp2174
S'HV'
p2175
aS'135'
p2176
aF-0.14269999999999999
aa(lp2177
S'HV'
p2178
aS'134'
p2179
aF-0.52870000000000006
aa(lp2180
S'HV'
p2181
aS'137'
p2182
aF-0.10619999999999999
aa(lp2183
S'LV'
p2184
aS'21'
p2185
aF9999999782.4727001
aa(lp2186
S'HV'
p2187
aS'131'
p2188
aF1.4934000000000001
aa(lp2189
S'HV'
p2190
aS'130'
p2191
aF-0.19680000000000003
aa(lp2192
S'HV'
p2193
aS'133'
p2194
aF-0.91779999999999995
aa(lp2195
S'HV'
p2196
aS'132'
p2197
aF-0.38920000000000005
aa(lp2198
S'KV'
p2199
aS'54'
p2200
aF1771.2727
aa(lp2201
S'KV'
p2202
aS'55'
p2203
aF433.1644
aa(lp2204
S'KV'
p2205
aS'56'
p2206
aF376.06810000000002
aa(lp2207
S'KV'
p2208
aS'57'
p2209
aF363.45420000000001
aa(lp2210
S'KV'
p2211
aS'50'
p2212
aF10000000282.658501
aa(lp2213
S'KV'
p2214
aS'51'
p2215
aF418.04169999999999
aa(lp2216
S'KV'
p2217
aS'52'
p2218
aF356.60110000000003
aa(lp2219
S'KV'
p2220
aS'53'
p2221
aF436.94049999999999
aa(lp2222
S'KV'
p2223
aS'58'
p2224
aF433.286
aa(lp2225
S'KV'
p2226
aS'59'
p2227
aF74.928600000000003
aa(lp2228
S'KCDR3'
p2229
aS'194'
p2230
aF-11.1074
aa(lp2231
S'KCDR3'
p2232
aS'48'
p2233
aF117.6023
aa(lp2234
S'KCDR3'
p2235
aS'49'
p2236
aF15.760100000000001
aa(lp2237
S'KCDR3'
p2238
aS'46'
p2239
aF-10.8545
aa(lp2240
S'KCDR3'
p2241
aS'47'
p2242
aF1319.6213
aa(lp2243
S'KCDR3'
p2244
aS'44'
p2245
aF0.049000000000000044
aa(lp2246
S'KCDR3'
p2247
aS'45'
p2248
aF2.8187999999999995
aa(lp2249
S'KCDR3'
p2250
aS'42'
p2251
aF45.934699999999999
aa(lp2252
S'KCDR3'
p2253
aS'43'
p2254
aF1.3239000000000001
aa(lp2255
S'KCDR3'
p2256
aS'40'
p2257
aF3139.0944
aa(lp2258
S'KCDR3'
p2259
aS'41'
p2260
aF-14.7012
aa(lp2261
S'LV'
p2262
aS'18'
p2263
aF9999999775.0235004
aa(lp2264
S'KCDR3'
p2265
aS'165'
p2266
aF50523.655500000001
aa(lp2267
S'HCDR3'
p2268
aS'361'
p2269
aF9999999955.059
aa(lp2270
S'KJ'
p2271
aS'4'
aF0
aa(lp2272
S'HCDR3'
p2273
aS'360'
p2274
aF19315074.476600002
aa(lp2275
S'KCDR3'
p2276
aS'186'
p2277
aF10838809.627999999
aa(lp2278
S'KCDR3'
p2279
aS'75'
p2280
aF13.116
aa(lp2281
S'HCDR3'
p2282
aS'363'
p2283
aF10000000194.5972
aa(lp2284
S'HCDR3'
p2285
aS'362'
p2286
aF16270.1324
aa(lp2287
S'HCDR3'
p2288
aS'365'
p2289
aF1128138828.8704
aa(lp2290
S'HCDR3'
p2291
aS'364'
p2292
aF10000000036.652201
aa(lp2293
S'KCDR3'
p2294
aS'129'
p2295
aF-2.1948999999999996
aa(lp2296
S'HV'
p2297
aS'79'
p2298
aF2.2572000000000001
aa(lp2299
S'HV'
p2300
aS'78'
p2301
aF1.7641
aa(lp2302
S'HV'
p2303
aS'75'
p2304
aF1.2067999999999999
aa(lp2305
S'HV'
p2306
aS'74'
p2307
aF1.4495
aa(lp2308
S'HV'
p2309
aS'77'
p2310
aF1.7476999999999998
aa(lp2311
S'HV'
p2312
aS'76'
p2313
aF6.8930000000000007
aa(lp2314
S'HV'
p2315
aS'71'
p2316
aF1.1800000000000002
aa(lp2317
S'HV'
p2318
aS'70'
p2319
aF1.2278
aa(lp2320
S'HV'
p2321
aS'73'
p2322
aF1.1696
aa(lp2323
S'HV'
p2324
aS'72'
p2325
aF1.1263000000000001
aa(lp2326
S'HCDR3'
p2327
aS'389'
p2328
aF1171617890.4496
aa(lp2329
S'KCDR3'
p2330
aS'187'
p2331
aF1.1277000000000001
aa(lp2332
S'KCDR3'
p2333
aS'184'
p2334
aF-5.1873000000000005
aa(lp2335
S'KCDR3'
p2336
aS'185'
p2337
aF-3.8063000000000002
aa(lp2338
S'LCDR3'
p2339
aS'39'
p2340
aF71.010800000000003
aa(lp2341
S'HCDR3'
p2342
aS'347'
p2343
aF189678.73520000002
aa(lp2344
S'HCDR3'
p2345
aS'346'
p2346
aF2402.7327
aa(lp2347
S'HCDR3'
p2348
aS'345'
p2349
aF34.1053
aa(lp2350
S'HCDR3'
p2351
aS'344'
p2352
aF-2.6492999999999998
aa(lp2353
S'HCDR3'
p2354
aS'343'
p2355
aF-6.1759000000000004
aa(lp2356
S'HCDR3'
p2357
aS'342'
p2358
aF47.7712
aa(lp2359
S'HCDR3'
p2360
aS'341'
p2361
aF489629594.34540004
aa(lp2362
S'HCDR3'
p2363
aS'340'
p2364
aF3400722.8815000001
aa(lp2365
S'HCDR3'
p2366
aS'349'
p2367
aF10000000358.1896
aa(lp2368
S'HCDR3'
p2369
aS'348'
p2370
aF18797586.133899998
aa(lp2371
S'LCDR3'
p2372
aS'1'
aF-5.0684000000000005
aa(lp2373
S'KCDR3'
p2374
aS'148'
p2375
aF21.396000000000001
aa(lp2376
S'KCDR3'
p2377
aS'149'
p2378
aF-9.3917000000000002
aa(lp2379
S'KCDR3'
p2380
aS'142'
p2381
aF-15.1395
aa(lp2382
S'KCDR3'
p2383
aS'143'
p2384
aF-0.27229999999999999
aa(lp2385
S'KCDR3'
p2386
aS'140'
p2387
aF-2.9729999999999999
aa(lp2388
S'KCDR3'
p2389
aS'141'
p2390
aF-14.205
aa(lp2391
S'KCDR3'
p2392
aS'146'
p2393
aF-0.8659
aa(lp2394
S'KCDR3'
p2395
aS'147'
p2396
aF0.37609999999999988
aa(lp2397
S'KCDR3'
p2398
aS'144'
p2399
aF-0.009000000000000008
aa(lp2400
S'KCDR3'
p2401
aS'145'
p2402
aF-1.6861000000000002
aa(lp2403
S'HCDR3'
p2404
aS'282'
p2405
aF-5.1455000000000002
aa(lp2406
S'HCDR3'
p2407
aS'283'
p2408
aF102.0992
aa(lp2409
S'HCDR3'
p2410
aS'280'
p2411
aF0.81040000000000001
aa(lp2412
S'HCDR3'
p2413
aS'281'
p2414
aF-8.9491000000000014
aa(lp2415
S'HCDR3'
p2416
aS'286'
p2417
aF2553784440.5451999
aa(lp2418
S'HCDR3'
p2419
aS'287'
p2420
aF20621.907299999999
aa(lp2421
S'HCDR3'
p2422
aS'284'
p2423
aF17452.7081
aa(lp2424
S'HCDR3'
p2425
aS'285'
p2426
aF140232.77599999998
aa(lp2427
S'HCDR3'
p2428
aS'288'
p2429
aF-0.16780000000000017
aa(lp2430
S'HCDR3'
p2431
aS'289'
p2432
aF-7.7993999999999994
aa(lp2433
S'HV'
p2434
aS'24'
p2435
aF-5.0890000000000004
aa(lp2436
S'HCDR3'
p2437
aS'112'
p2438
aF-3.2366000000000001
aa(lp2439
S'HCDR3'
p2440
aS'113'
p2441
aF643.36369999999999
aa(lp2442
S'HCDR3'
p2443
aS'110'
p2444
aF57159.375599999999
aa(lp2445
S'HCDR3'
p2446
aS'111'
p2447
aF211.61079999999998
aa(lp2448
S'HCDR3'
p2449
aS'116'
p2450
aF0.10580000000000001
aa(lp2451
S'HCDR3'
p2452
aS'117'
p2453
aF5.5180000000000007
aa(lp2454
S'HCDR3'
p2455
aS'114'
p2456
aF-3.0345999999999997
aa(lp2457
S'HCDR3'
p2458
aS'115'
p2459
aF17.0932
aa(lp2460
S'KCDR3'
p2461
aS'125'
p2462
aF2.6104000000000003
aa(lp2463
S'HCDR3'
p2464
aS'118'
p2465
aF668.8931
aa(lp2466
S'HCDR3'
p2467
aS'119'
p2468
aF209108.51449999999
aa(lp2469
S'HCDR3'
p2470
aS'65'
p2471
aF-0.31560000000000005
aa(lp2472
S'HCDR3'
p2473
aS'64'
p2474
aF-0.91969999999999985
aa(lp2475
S'HCDR3'
p2476
aS'67'
p2477
aF1.1153
aa(lp2478
S'HCDR3'
p2479
aS'66'
p2480
aF-2.5952000000000002
aa(lp2481
S'HCDR3'
p2482
aS'61'
p2483
aF0.28370000000000006
aa(lp2484
S'HCDR3'
p2485
aS'60'
p2486
aF-1.776
aa(lp2487
S'HCDR3'
p2488
aS'63'
p2489
aF-2.8140000000000001
aa(lp2490
S'HCDR3'
p2491
aS'62'
p2492
aF0.3044
aa(lp2493
S'LV'
p2494
aS'13'
p2495
aF53772569.057700001
aa(lp2496
S'LV'
p2497
aS'12'
p2498
aF3555875.3266999996
aa(lp2499
S'LV'
p2500
aS'11'
p2501
aF2885403.1373000001
aa(lp2502
S'LV'
p2503
aS'10'
p2504
aF612264262.69459999
aa(lp2505
S'HCDR3'
p2506
aS'69'
p2507
aF-1.0693999999999999
aa(lp2508
S'HCDR3'
p2509
aS'68'
p2510
aF5224.3016000000007
aa(lp2511
S'LV'
p2512
aS'15'
p2513
aF68902073.03050001
aa(lp2514
S'LV'
p2515
aS'14'
p2516
aF51515574.045400001
aa(lp2517
S'HCDR3'
p2518
aS'300'
p2519
aF10000000041.8939
aa(lp2520
S'KJ'
p2521
aS'3'
aF0
aa(lp2522
S'KV'
p2523
aS'18'
p2524
aF164.85220000000001
aa(lp2525
S'KV'
p2526
aS'19'
p2527
aF22269.6037
aa(lp2528
S'KV'
p2529
aS'10'
p2530
aF527.91679999999997
aa(lp2531
S'KV'
p2532
aS'11'
p2533
aF4644611.1025
aa(lp2534
S'KV'
p2535
aS'12'
p2536
aF4787845.3890000004
aa(lp2537
S'KV'
p2538
aS'13'
p2539
aF2103.8938000000003
aa(lp2540
S'KV'
p2541
aS'14'
p2542
aF2258.3885
aa(lp2543
S'KV'
p2544
aS'15'
p2545
aF3113.7417999999998
aa(lp2546
S'KV'
p2547
aS'16'
p2548
aF695.70309999999995
aa(lp2549
S'KV'
p2550
aS'17'
p2551
aF183.68680000000001
aa(lp2552
S'LV'
p2553
aS'38'
p2554
aF20284380.262900002
aa(lp2555
S'KCDR3'
p2556
aS'39'
p2557
aF2.1856999999999998
aa(lp2558
S'HCDR3'
p2559
aS'239'
p2560
aF-7.8041
aa(lp2561
S'HCDR3'
p2562
aS'238'
p2563
aF3.7423000000000002
aa(lp2564
S'HCDR3'
p2565
aS'237'
p2566
aF0.59979999999999989
aa(lp2567
S'HCDR3'
p2568
aS'236'
p2569
aF0.51730000000000054
aa(lp2570
S'HCDR3'
p2571
aS'235'
p2572
aF2.617
aa(lp2573
S'HCDR3'
p2574
aS'234'
p2575
aF84445.270399999994
aa(lp2576
S'HCDR3'
p2577
aS'233'
p2578
aF-4.7177000000000007
aa(lp2579
S'HCDR3'
p2580
aS'232'
p2581
aF-0.048399999999999999
aa(lp2582
S'HCDR3'
p2583
aS'231'
p2584
aF3148879.7467
aa(lp2585
S'HCDR3'
p2586
aS'230'
p2587
aF0.94510000000000005
aa(lp2588
S'HCDR3'
p2589
aS'308'
p2590
aF53745.145199999999
aa(lp2591
S'HCDR3'
p2592
aS'10'
p2593
aF-0.64770000000000005
aa(lp2594
S'HCDR3'
p2595
aS'11'
p2596
aF-0.46579999999999999
aa(lp2597
S'HCDR3'
p2598
aS'12'
p2599
aF-0.68359999999999999
aa(lp2600
S'HCDR3'
p2601
aS'13'
p2602
aF-0.025499999999999995
aa(lp2603
S'HCDR3'
p2604
aS'14'
p2605
aF0.019599999999999992
aa(lp2606
S'HCDR3'
p2607
aS'15'
p2608
aF0.30180000000000001
aa(lp2609
S'HCDR3'
p2610
aS'16'
p2611
aF-0.03839999999999999
aa(lp2612
S'HCDR3'
p2613
aS'17'
p2614
aF-0.019000000000000017
aa(lp2615
S'HCDR3'
p2616
aS'18'
p2617
aF-0.17069999999999999
aa(lp2618
S'HCDR3'
p2619
aS'19'
p2620
aF-0.59389999999999998
aa(lp2621
S'KCDR3'
p2622
aS'110'
p2623
aF-0.00849999999999973
aa(lp2624
S'HCDR3'
p2625
aS'81'
p2626
aF-0.45380000000000004
aa(lp2627
S'KCDR3'
p2628
aS'199'
p2629
aF-1.0901000000000001
aa(lp2630
S'KV'
p2631
aS'65'
p2632
aF501.6035
aa(lp2633
S'KV'
p2634
aS'64'
p2635
aF267.42679999999996
aa(lp2636
S'KV'
p2637
aS'67'
p2638
aF9999999758.625
aa(lp2639
S'KV'
p2640
aS'66'
p2641
aF53594.017200000002
aa(lp2642
S'KV'
p2643
aS'61'
p2644
aF103.9376
aa(lp2645
S'KV'
p2646
aS'60'
p2647
aF5713.8386999999993
aa(lp2648
S'KV'
p2649
aS'63'
p2650
aF411.12030000000004
aa(lp2651
S'KV'
p2652
aS'62'
p2653
aF47153.278700000003
aa(lp2654
S'LV'
p2655
aS'35'
p2656
aF6187381453.8390999
aa(lp2657
S'HCDR3'
p2658
aS'303'
p2659
aF1147234.1002
aa(lp2660
S'HCDR3'
p2661
aS'302'
p2662
aF950961.55199999991
aa(lp2663
S'HCDR3'
p2664
aS'89'
p2665
aF-0.70920000000000005
aa(lp2666
S'HCDR3'
p2667
aS'88'
p2668
aF-1.2569000000000001
aa(lp2669
S'HCDR3'
p2670
aS'307'
p2671
aF0.47439999999999993
aa(lp2672
S'HCDR3'
p2673
aS'306'
p2674
aF9999999982.1011009
aa(lp2675
S'HCDR3'
p2676
aS'305'
p2677
aF8908.5424000000003
aa(lp2678
S'HCDR3'
p2679
aS'304'
p2680
aF9999999973.7664013
aa(lp2681
S'HCDR3'
p2682
aS'83'
p2683
aF-2.1368999999999998
aa(lp2684
S'HCDR3'
p2685
aS'82'
p2686
aF5.8050000000000006
aa(lp2687
S'HCDR3'
p2688
aS'309'
p2689
aF-4.9790999999999999
aa(lp2690
S'HCDR3'
p2691
aS'80'
p2692
aF-1.0683
aa(lp2693
S'HCDR3'
p2694
aS'87'
p2695
aF-3.8039999999999998
aa(lp2696
S'HCDR3'
p2697
aS'86'
p2698
aF0.43110000000000004
aa(lp2699
S'HCDR3'
p2700
aS'85'
p2701
aF0.33169999999999994
aa(lp2702
S'HCDR3'
p2703
aS'84'
p2704
aF-0.38400000000000001
aa.