ccopy_reg
_reconstructor
p1
(cmolecules
ProtoAntibody
p2
c__builtin__
object
p3
NtRp4
(dp5
S'energy'
p6
F6328047.4954000004
sS'light_chain'
p7
S'L'
sS'cluster'
p8
NsS'parts'
p9
(dp10
S'HJ'
p11
S'3'
sS'LJ'
p12
S'5'
sS'HV'
p13
S'13'
p14
sS'LV'
p15
S'28'
p16
sS'HCDR3'
p17
S'4'
sS'LCDR3'
p18
S'11'
p19
ssS'coords'
p20
NsS'position'
p21
(F120
F2.5
F-5
F12.5
tp22
sb.