ccopy_reg
_reconstructor
p1
(cmolecules
ProtoAntibody
p2
c__builtin__
object
p3
NtRp4
(dp5
S'energy'
p6
F2240404.7036000001
sS'light_chain'
p7
S'K'
sS'cluster'
p8
NsS'parts'
p9
(dp10
S'KJ'
p11
S'1'
sS'KCDR3'
p12
S'103'
p13
sS'HV'
p14
S'17'
p15
sS'HJ'
p16
S'5'
sS'HCDR3'
p17
S'1'
sS'KV'
p18
S'44'
p19
ssS'coords'
p20
NsS'position'
p21
(F300
F-10
F5
F15
tp22
sb.