ccopy_reg
_reconstructor
p1
(cmolecules
ProtoAntibody
p2
c__builtin__
object
p3
NtRp4
(dp5
S'energy'
p6
F28996690.705699999
sS'light_chain'
p7
S'L'
sS'cluster'
p8
NsS'parts'
p9
(dp10
S'HJ'
p11
S'1'
sS'LJ'
p12
S'5'
sS'HV'
p13
S'52'
p14
sS'LV'
p15
S'31'
p16
sS'HCDR3'
p17
S'13'
p18
sS'LCDR3'
p19
S'12'
p20
ssS'coords'
p21
NsS'position'
p22
(F240
F-2.5
F10
F13.75
tp23
sb.