ccopy_reg
_reconstructor
p1
(cmolecules
ProtoAntibody
p2
c__builtin__
object
p3
NtRp4
(dp5
S'energy'
p6
F27146111.003800001
sS'light_chain'
p7
S'K'
sS'cluster'
p8
NsS'parts'
p9
(dp10
S'KJ'
p11
S'4'
sS'KCDR3'
p12
S'2'
sS'HV'
p13
S'8'
sS'HJ'
p14
S'1'
sS'HCDR3'
p15
S'4'
sS'KV'
p16
S'2'
ssS'coords'
p17
NsS'position'
p18
(F300
F-5
F-2.5
F12.5
tp19
sb.