ccopy_reg
_reconstructor
p1
(cmolecules
ProtoAntibody
p2
c__builtin__
object
p3
NtRp4
(dp5
S'energy'
p6
F93795.010699999984
sS'light_chain'
p7
S'K'
sS'cluster'
p8
NsS'parts'
p9
(dp10
S'KJ'
p11
S'1'
sS'KCDR3'
p12
S'199'
p13
sS'HV'
p14
S'86'
p15
sS'HJ'
p16
S'1'
sS'HCDR3'
p17
S'241'
p18
sS'KV'
p19
S'4'
ssS'coords'
p20
NsS'position'
p21
(F120
F-10
F-5
F15
tp22
sb.