ccopy_reg
_reconstructor
p1
(cmolecules
ProtoAntibody
p2
c__builtin__
object
p3
NtRp4
(dp5
S'energy'
p6
F470889.86829999997
sS'light_chain'
p7
S'K'
sS'cluster'
p8
NsS'parts'
p9
(dp10
S'KJ'
p11
S'2'
sS'KCDR3'
p12
S'6'
sS'HV'
p13
S'17'
p14
sS'HJ'
p15
S'3'
sS'HCDR3'
p16
S'1'
sS'KV'
p17
S'5'
ssS'coords'
p18
NsS'position'
p19
(F120
F5
F-2.5
F12.5
tp20
sb.