ccopy_reg
_reconstructor
p1
(cmolecules
ProtoAntibody
p2
c__builtin__
object
p3
NtRp4
(dp5
S'energy'
p6
F0.87100000000000222
sS'light_chain'
p7
S'L'
sS'cluster'
p8
NsS'parts'
p9
(dp10
S'HJ'
p11
S'2'
sS'LJ'
p12
S'6'
sS'HV'
p13
S'111'
p14
sS'LV'
p15
S'10'
p16
sS'HCDR3'
p17
S'8'
sS'LCDR3'
p18
S'8'
ssS'coords'
p19
NsS'position'
p20
(F300
F2.5
F7.5
F16.25
tp21
sb.