ccopy_reg
_reconstructor
p1
(cmolecules
ProtoAntibody
p2
c__builtin__
object
p3
NtRp4
(dp5
S'energy'
p6
F161889603.81970006
sS'light_chain'
p7
S'K'
sS'cluster'
p8
NsS'parts'
p9
(dp10
S'KJ'
p11
S'3'
sS'KCDR3'
p12
S'51'
p13
sS'HV'
p14
S'80'
p15
sS'HJ'
p16
S'1'
sS'HCDR3'
p17
S'2'
sS'KV'
p18
S'5'
ssS'coords'
p19
NsS'position'
p20
(F180
F0
F10
F8.75
tp21
sb.