ccopy_reg
_reconstructor
p1
(cmolecules
ProtoAntibody
p2
c__builtin__
object
p3
NtRp4
(dp5
S'energy'
p6
F1353813.2459000002
sS'light_chain'
p7
S'L'
sS'cluster'
p8
NsS'parts'
p9
(dp10
S'HJ'
p11
S'1'
sS'LJ'
p12
S'4'
sS'HV'
p13
S'8'
sS'LV'
p14
S'38'
p15
sS'HCDR3'
p16
S'94'
p17
sS'LCDR3'
p18
S'5'
ssS'coords'
p19
NsS'position'
p20
(F240
F2.5
F-2.5
F16.25
tp21
sb.