ccopy_reg
_reconstructor
p1
(cmolecules
ProtoAntibody
p2
c__builtin__
object
p3
NtRp4
(dp5
S'energy'
p6
F4277030.3683000002
sS'light_chain'
p7
S'L'
sS'cluster'
p8
NsS'parts'
p9
(dp10
S'HJ'
p11
S'2'
sS'LJ'
p12
S'6'
sS'HV'
p13
S'111'
p14
sS'LV'
p15
S'10'
p16
sS'HCDR3'
p17
S'219'
p18
sS'LCDR3'
p19
S'25'
p20
ssS'coords'
p21
NsS'position'
p22
(F60
F5
F7.5
F13.75
tp23
sb.