ccopy_reg
_reconstructor
p1
(cmolecules
ProtoAntibody
p2
c__builtin__
object
p3
NtRp4
(dp5
S'energy'
p6
F2313.9199999999996
sS'light_chain'
p7
S'L'
sS'cluster'
p8
NsS'parts'
p9
(dp10
S'HJ'
p11
S'2'
sS'LJ'
p12
S'1'
sS'HV'
p13
S'111'
p14
sS'LV'
p15
S'29'
p16
sS'HCDR3'
p17
S'251'
p18
sS'LCDR3'
p19
S'14'
p20
ssS'coords'
p21
NsS'position'
p22
(F0
F-7.5
F10
F15
tp23
sb.