ccopy_reg
_reconstructor
p1
(cmolecules
ProtoAntibody
p2
c__builtin__
object
p3
NtRp4
(dp5
S'energy'
p6
F4338.9731000000002
sS'light_chain'
p7
S'K'
sS'cluster'
p8
NsS'parts'
p9
(dp10
S'KJ'
p11
S'4'
sS'KCDR3'
p12
S'157'
p13
sS'HV'
p14
S'82'
p15
sS'HJ'
p16
S'4'
sS'HCDR3'
p17
S'4'
sS'KV'
p18
S'6'
ssS'coords'
p19
NsS'position'
p20
(F0
F-2.5
F-2.5
F13.75
tp21
sb.