ccopy_reg
_reconstructor
p1
(cmolecules
ProtoAntibody
p2
c__builtin__
object
p3
NtRp4
(dp5
S'energy'
p6
F10027682577.673399
sS'light_chain'
p7
S'K'
sS'cluster'
p8
NsS'parts'
p9
(dp10
S'KJ'
p11
S'2'
sS'KCDR3'
p12
S'126'
p13
sS'HV'
p14
S'43'
p15
sS'HJ'
p16
S'1'
sS'HCDR3'
p17
S'1'
sS'KV'
p18
S'4'
ssS'coords'
p19
NsS'position'
p20
(F120
F0
F5
F7.5
tp21
sb.