ccopy_reg
_reconstructor
p1
(cmolecules
ProtoAntibody
p2
c__builtin__
object
p3
NtRp4
(dp5
S'energy'
p6
F111525.5033
sS'light_chain'
p7
S'L'
sS'cluster'
p8
NsS'parts'
p9
(dp10
S'HJ'
p11
S'4'
sS'LJ'
p12
S'5'
sS'HV'
p13
S'8'
sS'LV'
p14
S'31'
p15
sS'HCDR3'
p16
S'4'
sS'LCDR3'
p17
S'12'
p18
ssS'coords'
p19
NsS'position'
p20
(F300
F-2.5
F0
F12.5
tp21
sb.