ccopy_reg
_reconstructor
p1
(cmolecules
ProtoAntibody
p2
c__builtin__
object
p3
NtRp4
(dp5
S'energy'
p6
F-122.4196
sS'light_chain'
p7
S'L'
sS'cluster'
p8
NsS'parts'
p9
(dp10
S'HJ'
p11
S'4'
sS'LJ'
p12
S'5'
sS'HV'
p13
S'8'
sS'LV'
p14
S'31'
p15
sS'HCDR3'
p16
S'1'
sS'LCDR3'
p17
S'5'
ssS'coords'
p18
NsS'position'
p19
(F60
F2.5
F-5
F16.25
tp20
sb.