ccopy_reg
_reconstructor
p1
(cmolecules
ProtoAntibody
p2
c__builtin__
object
p3
NtRp4
(dp5
S'energy'
p6
F-55.192799999999998
sS'light_chain'
p7
S'K'
sS'cluster'
p8
NsS'parts'
p9
(dp10
S'KJ'
p11
S'4'
sS'KCDR3'
p12
S'86'
p13
sS'HV'
p14
S'54'
p15
sS'HJ'
p16
S'5'
sS'HCDR3'
p17
S'24'
p18
sS'KV'
p19
S'58'
p20
ssS'coords'
p21
NsS'position'
p22
(F300
F0
F2.5
F16.25
tp23
sb.