ccopy_reg
_reconstructor
p1
(cmolecules
ProtoAntibody
p2
c__builtin__
object
p3
NtRp4
(dp5
S'energy'
p6
F-101.69590000000002
sS'light_chain'
p7
S'K'
sS'cluster'
p8
NsS'parts'
p9
(dp10
S'KJ'
p11
S'4'
sS'KCDR3'
p12
S'7'
sS'HV'
p13
S'19'
p14
sS'HJ'
p15
S'4'
sS'HCDR3'
p16
S'66'
p17
sS'KV'
p18
S'2'
ssS'coords'
p19
NsS'position'
p20
(F0
F-5
F2.5
F16.25
tp21
sb.