ccopy_reg
_reconstructor
p1
(cmolecules
ProtoAntibody
p2
c__builtin__
object
p3
NtRp4
(dp5
S'energy'
p6
F4.5151000000000021
sS'light_chain'
p7
S'L'
sS'cluster'
p8
NsS'parts'
p9
(dp10
S'HJ'
p11
S'1'
sS'LJ'
p12
S'5'
sS'HV'
p13
S'8'
sS'LV'
p14
S'30'
p15
sS'HCDR3'
p16
S'57'
p17
sS'LCDR3'
p18
S'20'
p19
ssS'coords'
p20
NsS'position'
p21
(F0
F5
F5
F15
tp22
sb.