(lp1
(lp2
S'KCDR3'
p3
aS'84'
p4
aF225176.8751
aa(lp5
S'KCDR3'
p6
aS'85'
p7
aF3238.6776
aa(lp8
S'KCDR3'
p9
aS'106'
p10
aF734902.17050000001
aa(lp11
S'KCDR3'
p12
aS'107'
p13
aF71.440399999999997
aa(lp14
S'KCDR3'
p15
aS'104'
p16
aF3405.4562999999998
aa(lp17
S'KCDR3'
p18
aS'105'
p19
aF72103.695699999997
aa(lp20
S'KCDR3'
p21
aS'102'
p22
aF128118.00169999999
aa(lp23
S'KCDR3'
p24
aS'103'
p25
aF501647.18239999999
aa(lp26
S'KCDR3'
p27
aS'100'
p28
aF102716738.7519
aa(lp29
S'KCDR3'
p30
aS'195'
p31
aF173199.80349999998
aa(lp32
S'KCDR3'
p33
aS'88'
p34
aF10000000190.562302
aa(lp35
S'KCDR3'
p36
aS'108'
p37
aF20377.462799999998
aa(lp38
S'KCDR3'
p39
aS'109'
p40
aF5645326.4647999993
aa(lp41
S'KCDR3'
p42
aS'89'
p43
aF386437.86379999999
aa(lp44
S'HCDR3'
p45
aS'408'
p46
aF10000000146.257
aa(lp47
S'HCDR3'
p48
aS'409'
p49
aF9999999649.5563011
aa(lp50
S'HCDR3'
p51
aS'158'
p52
aF48698.609900000003
aa(lp53
S'HCDR3'
p54
aS'159'
p55
aF336564.06090000004
aa(lp56
S'HCDR3'
p57
aS'404'
p58
aF9999999890.2723999
aa(lp59
S'HCDR3'
p60
aS'405'
p61
aF10000000478.069801
aa(lp62
S'HCDR3'
p63
aS'406'
p64
aF309084658.19409996
aa(lp65
S'HCDR3'
p66
aS'407'
p67
aF294538563.64769995
aa(lp68
S'HCDR3'
p69
aS'400'
p70
aF1678639021.9583001
aa(lp71
S'HCDR3'
p72
aS'153'
p73
aF8341817.3403000003
aa(lp74
S'HCDR3'
p75
aS'402'
p76
aF522558483.8506
aa(lp77
S'HCDR3'
p78
aS'151'
p79
aF705498398.89459991
aa(lp80
S'HV'
p81
aS'31'
p82
aF-4.8314000000000004
aa(lp83
S'HV'
p84
aS'30'
p85
aF-1.5671999999999999
aa(lp86
S'HV'
p87
aS'33'
p88
aF2.6114000000000002
aa(lp89
S'HV'
p90
aS'32'
p91
aF-12.253
aa(lp92
S'HV'
p93
aS'35'
p94
aF2.1560999999999999
aa(lp95
S'HV'
p96
aS'34'
p97
aF2.2584999999999997
aa(lp98
S'HV'
p99
aS'37'
p100
aF4.4164999999999992
aa(lp101
S'HV'
p102
aS'36'
p103
aF4.3410000000000002
aa(lp104
S'HV'
p105
aS'39'
p106
aF7.5946000000000007
aa(lp107
S'HV'
p108
aS'38'
p109
aF-8.8656000000000006
aa(lp110
S'HCDR3'
p111
aS'396'
p112
aF127290072.87439999
aa(lp113
S'HCDR3'
p114
aS'397'
p115
aF6572522.1315000001
aa(lp116
S'HCDR3'
p117
aS'390'
p118
aF9999999971.6560001
aa(lp119
S'HCDR3'
p120
aS'391'
p121
aF1878775569.7046001
aa(lp122
S'HCDR3'
p123
aS'392'
p124
aF3575.3147999999997
aa(lp125
S'HCDR3'
p126
aS'393'
p127
aF10000000170.129801
aa(lp128
S'KCDR3'
p129
aS'197'
p130
aF42.625399999999999
aa(lp131
S'HCDR3'
p132
aS'279'
p133
aF3782204.6136000003
aa(lp134
S'HCDR3'
p135
aS'278'
p136
aF-17.707000000000001
aa(lp137
S'HCDR3'
p138
aS'273'
p139
aF299804.61219999997
aa(lp140
S'HCDR3'
p141
aS'272'
p142
aF137.72559999999999
aa(lp143
S'HCDR3'
p144
aS'271'
p145
aF1425487.2503000002
aa(lp146
S'HCDR3'
p147
aS'270'
p148
aF0.48839999999999995
aa(lp149
S'HCDR3'
p150
aS'277'
p151
aF9.6676000000000002
aa(lp152
S'HCDR3'
p153
aS'276'
p154
aF3105874003.763
aa(lp155
S'HCDR3'
p156
aS'275'
p157
aF477017.0172
aa(lp158
S'HCDR3'
p159
aS'274'
p160
aF39.5105
aa(lp161
S'KCDR3'
p162
aS'196'
p163
aF384979.23999999999
aa(lp164
S'LV'
p165
aS'33'
p166
aF-21.620200000000001
aa(lp167
S'LCDR3'
p168
aS'17'
p169
aF-20.536000000000001
aa(lp170
S'HCDR3'
p171
aS'58'
p172
aF0.34070000000000006
aa(lp173
S'HCDR3'
p174
aS'30'
p175
aF-0.21879999999999999
aa(lp176
S'HCDR3'
p177
aS'54'
p178
aF9.8811
aa(lp179
S'HCDR3'
p180
aS'55'
p181
aF10.3383
aa(lp182
S'HCDR3'
p183
aS'56'
p184
aF0.78390000000000004
aa(lp185
S'HCDR3'
p186
aS'57'
p187
aF0.1449999999999998
aa(lp188
S'HCDR3'
p189
aS'50'
p190
aF0.35060000000000002
aa(lp191
S'HCDR3'
p192
aS'51'
p193
aF1.2991000000000001
aa(lp194
S'HCDR3'
p195
aS'52'
p196
aF-5.6188000000000002
aa(lp197
S'HCDR3'
p198
aS'53'
p199
aF0.40110000000000001
aa(lp200
S'HV'
p201
aS'108'
p202
aF-6.3426
aa(lp203
S'HV'
p204
aS'109'
p205
aF0.26080000000000003
aa(lp206
S'HV'
p207
aS'100'
p208
aF2.4904999999999999
aa(lp209
S'HV'
p210
aS'101'
p211
aF2.6614
aa(lp212
S'HV'
p213
aS'102'
p214
aF1.1221999999999999
aa(lp215
S'HV'
p216
aS'103'
p217
aF-4.6866000000000003
aa(lp218
S'HV'
p219
aS'104'
p220
aF-5.8072999999999997
aa(lp221
S'HV'
p222
aS'105'
p223
aF-5.9787999999999997
aa(lp224
S'HV'
p225
aS'106'
p226
aF-4.9475999999999996
aa(lp227
S'HV'
p228
aS'107'
p229
aF-4.7985999999999995
aa(lp230
S'KV'
p231
aS'21'
p232
aF0.04809999999999981
aa(lp233
S'KV'
p234
aS'20'
p235
aF0.35220000000000073
aa(lp236
S'KV'
p237
aS'23'
p238
aF-0.42410000000000014
aa(lp239
S'KV'
p240
aS'22'
p241
aF0.29279999999999973
aa(lp242
S'KV'
p243
aS'25'
p244
aF-0.79129999999999967
aa(lp245
S'HCDR3'
p246
aS'49'
p247
aF0.066799999999999971
aa(lp248
S'KV'
p249
aS'27'
p250
aF-0.58050000000000024
aa(lp251
S'KV'
p252
aS'29'
p253
aF-0.57179999999999964
aa(lp254
S'KV'
p255
aS'28'
p256
aF0.0051000000000005485
aa(lp257
S'HV'
p258
aS'110'
p259
aF-5.2866
aa(lp260
S'KCDR3'
p261
aS'190'
p262
aF411.43180000000001
aa(lp263
S'KCDR3'
p264
aS'51'
p265
aF-12.203799999999999
aa(lp266
S'KCDR3'
p267
aS'50'
p268
aF-11.453800000000001
aa(lp269
S'KCDR3'
p270
aS'53'
p271
aF133.5335
aa(lp272
S'KCDR3'
p273
aS'52'
p274
aF-7.1082000000000001
aa(lp275
S'KCDR3'
p276
aS'55'
p277
aF6.0468000000000011
aa(lp278
S'HCDR3'
p279
aS'38'
p280
aF-3.4249000000000001
aa(lp281
S'KCDR3'
p282
aS'57'
p283
aF-8.2847000000000008
aa(lp284
S'KCDR3'
p285
aS'56'
p286
aF-6.6826999999999996
aa(lp287
S'KCDR3'
p288
aS'59'
p289
aF-2.1485000000000003
aa(lp290
S'KCDR3'
p291
aS'58'
p292
aF26.874199999999998
aa(lp293
S'HCDR3'
p294
aS'39'
p295
aF-3.6493000000000002
aa(lp296
S'LV'
p297
aS'37'
p298
aF83351.467700000008
aa(lp299
S'LCDR3'
p300
aS'11'
p301
aF54089.341900000007
aa(lp302
S'KCDR3'
p303
aS'54'
p304
aF30.310300000000002
aa(lp305
S'LV'
p306
aS'36'
p307
aF87578.683799999999
aa(lp308
S'LV'
p309
aS'31'
p310
aF4.9489999999999998
aa(lp311
S'KCDR3'
p312
aS'193'
p313
aF121479898.9684
aa(lp314
S'LCDR3'
p315
aS'27'
p316
aF75.080299999999994
aa(lp317
S'LV'
p318
aS'30'
p319
aF-5.6120000000000001
aa(lp320
S'HCDR3'
p321
aS'41'
p322
aF-0.037499999999999978
aa(lp323
S'HCDR3'
p324
aS'40'
p325
aF0.061499999999999999
aa(lp326
S'KCDR3'
p327
aS'192'
p328
aF299.91240000000005
aa(lp329
S'HCDR3'
p330
aS'156'
p331
aF-9.1770999999999994
aa(lp332
S'HCDR3'
p333
aS'157'
p334
aF61695106.625100002
aa(lp335
S'KCDR3'
p336
aS'65'
p337
aF232.22479999999999
aa(lp338
S'HCDR3'
p339
aS'154'
p340
aF48.166200000000003
aa(lp341
S'HCDR3'
p342
aS'155'
p343
aF-19.2438
aa(lp344
S'HV'
p345
aS'68'
p346
aF3.0127000000000002
aa(lp347
S'HV'
p348
aS'69'
p349
aF2.9828000000000001
aa(lp350
S'HV'
p351
aS'66'
p352
aF2.996
aa(lp353
S'HV'
p354
aS'67'
p355
aF2.8336000000000001
aa(lp356
S'HV'
p357
aS'64'
p358
aF3.7042000000000002
aa(lp359
S'HV'
p360
aS'65'
p361
aF-4.0644
aa(lp362
S'HV'
p363
aS'62'
p364
aF4.4041999999999994
aa(lp365
S'HV'
p366
aS'63'
p367
aF3.7048000000000001
aa(lp368
S'HV'
p369
aS'60'
p370
aF-4.6325000000000003
aa(lp371
S'HV'
p372
aS'61'
p373
aF4.6289999999999996
aa(lp374
S'HCDR3'
p375
aS'150'
p376
aF119662893.2502
aa(lp377
S'HCDR3'
p378
aS'403'
p379
aF10000000003.039301
aa(lp380
S'HCDR3'
p381
aS'358'
p382
aF119855617.11209999
aa(lp383
S'HCDR3'
p384
aS'359'
p385
aF9999999989.4625015
aa(lp386
S'HCDR3'
p387
aS'350'
p388
aF39676.829300000005
aa(lp389
S'HCDR3'
p390
aS'351'
p391
aF2.931
aa(lp392
S'HCDR3'
p393
aS'352'
p394
aF10000000275.3286
aa(lp395
S'HCDR3'
p396
aS'353'
p397
aF22596186.8924
aa(lp398
S'HCDR3'
p399
aS'354'
p400
aF10000000038.110102
aa(lp401
S'HCDR3'
p402
aS'355'
p403
aF10000000141.1488
aa(lp404
S'HCDR3'
p405
aS'356'
p406
aF6961307811.6935005
aa(lp407
S'HCDR3'
p408
aS'357'
p409
aF5215.2751000000007
aa(lp410
S'KCDR3'
p411
aS'78'
p412
aF3994.7552000000001
aa(lp413
S'HCDR3'
p414
aS'398'
p415
aF10000000382.829201
aa(lp416
S'HCDR3'
p417
aS'399'
p418
aF10000000129.677
aa(lp419
S'HJ'
p420
aS'5'
aF-0.0147
aa(lp421
S'HJ'
p422
aS'4'
aF-0.0147
aa(lp423
S'HJ'
p424
aS'3'
aF-0.0147
aa(lp425
S'HJ'
p426
aS'2'
aF-0.0147
aa(lp427
S'HJ'
p428
aS'1'
aF-0.0147
aa(lp429
S'LJ'
p430
aS'6'
aF-0.0147
aa(lp431
S'KCDR3'
p432
aS'82'
p433
aF882.24339999999995
aa(lp434
S'HCDR3'
p435
aS'394'
p436
aF10000000003.554501
aa(lp437
S'KCDR3'
p438
aS'80'
p439
aF3575436609.8986998
aa(lp440
S'KCDR3'
p441
aS'81'
p442
aF1722786.2157000001
aa(lp443
S'KCDR3'
p444
aS'86'
p445
aF254818.1263
aa(lp446
S'KCDR3'
p447
aS'87'
p448
aF569642.68539999996
aa(lp449
S'KCDR3'
p450
aS'179'
p451
aF-2.2079000000000004
aa(lp452
S'HCDR3'
p453
aS'395'
p454
aF1791127.956
aa(lp455
S'KCDR3'
p456
aS'191'
p457
aF10000000597.7178
aa(lp458
S'KCDR3'
p459
aS'176'
p460
aF2885.9513999999999
aa(lp461
S'KCDR3'
p462
aS'175'
p463
aF10795734.3839
aa(lp464
S'KCDR3'
p465
aS'174'
p466
aF847543.5577
aa(lp467
S'KCDR3'
p468
aS'173'
p469
aF15656949.053299999
aa(lp470
S'KCDR3'
p471
aS'172'
p472
aF900708.51750000007
aa(lp473
S'KCDR3'
p474
aS'171'
p475
aF7920.9981000000007
aa(lp476
S'KCDR3'
p477
aS'170'
p478
aF2979.0549000000001
aa(lp479
S'KCDR3'
p480
aS'70'
p481
aF1940.2852
aa(lp482
S'KCDR3'
p483
aS'77'
p484
aF4899.9318999999996
aa(lp485
S'KCDR3'
p486
aS'76'
p487
aF15169.241699999999
aa(lp488
S'HCDR3'
p489
aS'127'
p490
aF9999999930.4878006
aa(lp491
S'HCDR3'
p492
aS'126'
p493
aF3.0624000000000002
aa(lp494
S'HCDR3'
p495
aS'125'
p496
aF143.726
aa(lp497
S'HCDR3'
p498
aS'124'
p499
aF25.629799999999999
aa(lp500
S'HCDR3'
p501
aS'123'
p502
aF0.61809999999999965
aa(lp503
S'HCDR3'
p504
aS'122'
p505
aF1.6524999999999999
aa(lp506
S'HCDR3'
p507
aS'121'
p508
aF-7.5899000000000001
aa(lp509
S'HCDR3'
p510
aS'120'
p511
aF-0.69520000000000004
aa(lp512
S'KCDR3'
p513
aS'74'
p514
aF483108.84169999999
aa(lp515
S'HCDR3'
p516
aS'425'
p517
aF10000000172.057402
aa(lp518
S'HCDR3'
p519
aS'129'
p520
aF-0.86199999999999999
aa(lp521
S'HCDR3'
p522
aS'128'
p523
aF59.746600000000001
aa(lp524
S'HCDR3'
p525
aS'301'
p526
aF1174421.5792
aa(lp527
S'HV'
p528
aS'140'
p529
aF2.0924
aa(lp530
S'HV'
p531
aS'141'
p532
aF1.9833000000000001
aa(lp533
S'KCDR3'
p534
aS'24'
p535
aF-0.61859999999999982
aa(lp536
S'HV'
p537
aS'9'
aF3.7418
aa(lp538
S'HV'
p539
aS'8'
aF247992394.9084
aa(lp540
S'KCDR3'
p541
aS'19'
p542
aF4.5216000000000003
aa(lp543
S'KCDR3'
p544
aS'18'
p545
aF3015.2141000000001
aa(lp546
S'KCDR3'
p547
aS'25'
p548
aF32.539299999999997
aa(lp549
S'HV'
p550
aS'3'
aF6.6668000000000003
aa(lp551
S'HV'
p552
aS'2'
aF2.8255999999999997
aa(lp553
S'HV'
p554
aS'1'
aF2.4939999999999998
aa(lp555
S'KCDR3'
p556
aS'16'
p557
aF723.26290000000006
aa(lp558
S'HV'
p559
aS'7'
aF7.0418000000000003
aa(lp560
S'HV'
p561
aS'6'
aF3.4047000000000001
aa(lp562
S'HV'
p563
aS'5'
aF3.1252999999999997
aa(lp564
S'HV'
p565
aS'4'
aF3.2120000000000002
aa(lp566
S'HCDR3'
p567
aS'220'
p568
aF8219492.6762000006
aa(lp569
S'HCDR3'
p570
aS'221'
p571
aF143.86599999999999
aa(lp572
S'HCDR3'
p573
aS'222'
p574
aF-4.8269000000000002
aa(lp575
S'HCDR3'
p576
aS'223'
p577
aF2.3922000000000003
aa(lp578
S'HCDR3'
p579
aS'224'
p580
aF-5.4878
aa(lp581
S'HCDR3'
p582
aS'225'
p583
aF-5.4835000000000003
aa(lp584
S'HCDR3'
p585
aS'226'
p586
aF94.047200000000004
aa(lp587
S'HCDR3'
p588
aS'227'
p589
aF4.6317999999999993
aa(lp590
S'HCDR3'
p591
aS'228'
p592
aF35.155299999999997
aa(lp593
S'HCDR3'
p594
aS'229'
p595
aF1112766918.8353
aa(lp596
S'KCDR3'
p597
aS'83'
p598
aF325903.56839999999
aa(lp599
S'LCDR3'
p600
aS'32'
p601
aF-25.415800000000001
aa(lp602
S'LCDR3'
p603
aS'33'
p604
aF108.81640000000002
aa(lp605
S'LCDR3'
p606
aS'30'
p607
aF-10.179500000000001
aa(lp608
S'LCDR3'
p609
aS'31'
p610
aF1318.8597
aa(lp611
S'LCDR3'
p612
aS'36'
p613
aF-24.8126
aa(lp614
S'LV'
p615
aS'9'
aF422.41109999999998
aa(lp616
S'LCDR3'
p617
aS'34'
p618
aF-13.5602
aa(lp619
S'LCDR3'
p620
aS'35'
p621
aF7.8781000000000017
aa(lp622
S'KCDR3'
p623
aS'28'
p624
aF6032647.9830999998
aa(lp625
S'LCDR3'
p626
aS'38'
p627
aF5416.6953000000003
aa(lp628
S'LV'
p629
aS'8'
aF3871.3054000000002
aa(lp630
S'KCDR3'
p631
aS'29'
p632
aF134928.66159999999
aa(lp633
S'KCDR3'
p634
aS'68'
p635
aF741117429.02049994
aa(lp636
S'HCDR3'
p637
aS'90'
p638
aF5.0659999999999998
aa(lp639
S'HCDR3'
p640
aS'91'
p641
aF-2.7894000000000005
aa(lp642
S'KCDR3'
p643
aS'60'
p644
aF-34.242600000000003
aa(lp645
S'KCDR3'
p646
aS'61'
p647
aF-15.9087
aa(lp648
S'KCDR3'
p649
aS'62'
p650
aF7489.7903999999999
aa(lp651
S'KCDR3'
p652
aS'63'
p653
aF5557312.0543
aa(lp654
S'KCDR3'
p655
aS'64'
p656
aF102232.2972
aa(lp657
S'HCDR3'
p658
aS'92'
p659
aF-0.43240000000000001
aa(lp660
S'KCDR3'
p661
aS'66'
p662
aF33896184.171999998
aa(lp663
S'KCDR3'
p664
aS'67'
p665
aF6032134.9216999998
aa(lp666
S'HCDR3'
p667
aS'93'
p668
aF99.454300000000003
aa(lp669
S'HCDR3'
p670
aS'332'
p671
aF9999999986.1081009
aa(lp672
S'HCDR3'
p673
aS'333'
p674
aF17443.096000000001
aa(lp675
S'LCDR3'
p676
aS'8'
aF4812.7208000000001
aa(lp677
S'LCDR3'
p678
aS'9'
aF12.7301
aa(lp679
S'HCDR3'
p680
aS'330'
p681
aF12520938.3455
aa(lp682
S'LCDR3'
p683
aS'2'
aF9008150.0445000008
aa(lp684
S'LCDR3'
p685
aS'3'
aF-6.2156000000000002
aa(lp686
S'HCDR3'
p687
aS'97'
p688
aF-6.5648
aa(lp689
S'LCDR3'
p690
aS'6'
aF-4.6247000000000007
aa(lp691
S'LCDR3'
p692
aS'7'
aF572050890.27750003
aa(lp693
S'LCDR3'
p694
aS'4'
aF109.4901
aa(lp695
S'LCDR3'
p696
aS'5'
aF-15.488500000000002
aa(lp697
S'HCDR3'
p698
aS'314'
p699
aF69383110.944999993
aa(lp700
S'HCDR3'
p701
aS'315'
p702
aF-16.511700000000001
aa(lp703
S'HCDR3'
p704
aS'316'
p705
aF5459737784.6992998
aa(lp706
S'HCDR3'
p707
aS'317'
p708
aF534255.60310000007
aa(lp709
S'HCDR3'
p710
aS'310'
p711
aF322939571.71099997
aa(lp712
S'HCDR3'
p713
aS'311'
p714
aF8.9820999999999991
aa(lp715
S'HCDR3'
p716
aS'312'
p717
aF-8.8911999999999995
aa(lp718
S'HCDR3'
p719
aS'313'
p720
aF6878.9246000000003
aa(lp721
S'KCDR3'
p722
aS'198'
p723
aF175482.64480000001
aa(lp724
S'HCDR3'
p725
aS'318'
p726
aF2796125307.9293003
aa(lp727
S'HCDR3'
p728
aS'319'
p729
aF460385879.97370005
aa(lp730
S'LV'
p731
aS'19'
p732
aF170.65019999999998
aa(lp733
S'HV'
p734
aS'97'
p735
aF-0.088600000000000012
aa(lp736
S'HV'
p737
aS'96'
p738
aF0.61319999999999997
aa(lp739
S'HV'
p740
aS'95'
p741
aF2.0425999999999997
aa(lp742
S'HV'
p743
aS'94'
p744
aF0.59250000000000003
aa(lp745
S'HV'
p746
aS'93'
p747
aF-0.055200000000000027
aa(lp748
S'HV'
p749
aS'92'
p750
aF4.1074999999999999
aa(lp751
S'HV'
p752
aS'91'
p753
aF4.1288999999999998
aa(lp754
S'HV'
p755
aS'90'
p756
aF4.1742999999999997
aa(lp757
S'KCDR3'
p758
aS'133'
p759
aF-16.552399999999999
aa(lp760
S'KCDR3'
p761
aS'132'
p762
aF-2.6703000000000001
aa(lp763
S'KCDR3'
p764
aS'131'
p765
aF716363.1496
aa(lp766
S'KCDR3'
p767
aS'130'
p768
aF9810729.7158000004
aa(lp769
S'KCDR3'
p770
aS'137'
p771
aF864472.70660000003
aa(lp772
S'KCDR3'
p773
aS'136'
p774
aF43146342.8499
aa(lp775
S'HV'
p776
aS'99'
p777
aF1.5084
aa(lp778
S'HV'
p779
aS'98'
p780
aF0.0058000000000000274
aa(lp781
S'HCDR3'
p782
aS'31'
p783
aF-0.0025999999999999912
aa(lp784
S'KCDR3'
p785
aS'134'
p786
aF-5.4103000000000003
aa(lp787
S'HCDR3'
p788
aS'163'
p789
aF5865336.5589000005
aa(lp790
S'HCDR3'
p791
aS'162'
p792
aF-9.5803000000000011
aa(lp793
S'HCDR3'
p794
aS'161'
p795
aF1963128.1244000001
aa(lp796
S'HCDR3'
p797
aS'160'
p798
aF-4.6392000000000007
aa(lp799
S'HCDR3'
p800
aS'167'
p801
aF17996.092299999997
aa(lp802
S'HCDR3'
p803
aS'166'
p804
aF1694962645.211
aa(lp805
S'HCDR3'
p806
aS'165'
p807
aF-12.1526
aa(lp808
S'HCDR3'
p809
aS'164'
p810
aF437031934.47650003
aa(lp811
S'HCDR3'
p812
aS'169'
p813
aF14534.2135
aa(lp814
S'HCDR3'
p815
aS'168'
p816
aF4909068470.7487001
aa(lp817
S'HV'
p818
aS'22'
p819
aF12.3291
aa(lp820
S'HV'
p821
aS'23'
p822
aF11.491300000000001
aa(lp823
S'HV'
p824
aS'20'
p825
aF6.9481000000000002
aa(lp826
S'HV'
p827
aS'21'
p828
aF0.32119999999999999
aa(lp829
S'HV'
p830
aS'26'
p831
aF8.6785999999999994
aa(lp832
S'HV'
p833
aS'27'
p834
aF8.9972999999999992
aa(lp835
S'HCDR3'
p836
aS'367'
p837
aF9999999991.8906002
aa(lp838
S'HV'
p839
aS'25'
p840
aF17.482199999999999
aa(lp841
S'HCDR3'
p842
aS'369'
p843
aF1371598552.9384999
aa(lp844
S'HCDR3'
p845
aS'368'
p846
aF23530.556200000003
aa(lp847
S'HV'
p848
aS'28'
p849
aF-12.4261
aa(lp850
S'HV'
p851
aS'29'
p852
aF-12.3508
aa(lp853
S'KCDR3'
p854
aS'182'
p855
aF18975.111400000002
aa(lp856
S'KCDR3'
p857
aS'183'
p858
aF-10.883700000000001
aa(lp859
S'KCDR3'
p860
aS'180'
p861
aF14797509.978
aa(lp862
S'KCDR3'
p863
aS'181'
p864
aF1110536.3835
aa(lp865
S'HCDR3'
p866
aS'189'
p867
aF50.475200000000001
aa(lp868
S'HCDR3'
p869
aS'188'
p870
aF486089.56680000003
aa(lp871
S'HCDR3'
p872
aS'181'
p873
aF431364.56799999997
aa(lp874
S'HCDR3'
p875
aS'180'
p876
aF8645217795.4590988
aa(lp877
S'HCDR3'
p878
aS'183'
p879
aF-7.8338000000000001
aa(lp880
S'HCDR3'
p881
aS'182'
p882
aF388502.80399999995
aa(lp883
S'HCDR3'
p884
aS'185'
p885
aF-0.50319999999999965
aa(lp886
S'HCDR3'
p887
aS'184'
p888
aF4045.1481000000003
aa(lp889
S'HCDR3'
p890
aS'187'
p891
aF2.2556000000000003
aa(lp892
S'HCDR3'
p893
aS'186'
p894
aF-27.0412
aa(lp895
S'HCDR3'
p896
aS'268'
p897
aF0.82030000000000003
aa(lp898
S'HCDR3'
p899
aS'269'
p900
aF150531496.2543
aa(lp901
S'HCDR3'
p902
aS'264'
p903
aF10000000055.3794
aa(lp904
S'HCDR3'
p905
aS'265'
p906
aF-2.3293999999999997
aa(lp907
S'HCDR3'
p908
aS'266'
p909
aF-6.4029999999999996
aa(lp910
S'HCDR3'
p911
aS'267'
p912
aF57489824.847899996
aa(lp913
S'HCDR3'
p914
aS'260'
p915
aF656.00979999999993
aa(lp916
S'HCDR3'
p917
aS'261'
p918
aF-7.9261000000000008
aa(lp919
S'HCDR3'
p920
aS'262'
p921
aF14.715
aa(lp922
S'HCDR3'
p923
aS'263'
p924
aF160442726.61219999
aa(lp925
S'LV'
p926
aS'34'
p927
aF-20.6145
aa(lp928
S'HCDR3'
p929
aS'366'
p930
aF10000000032.755701
aa(lp931
S'HV'
p932
aS'117'
p933
aF3.1522999999999999
aa(lp934
S'HV'
p935
aS'116'
p936
aF10.604200000000001
aa(lp937
S'HV'
p938
aS'115'
p939
aF0.71100000000000008
aa(lp940
S'HV'
p941
aS'114'
p942
aF2.0133999999999999
aa(lp943
S'HV'
p944
aS'113'
p945
aF1.7072000000000001
aa(lp946
S'HV'
p947
aS'112'
p948
aF2.0729000000000002
aa(lp949
S'HV'
p950
aS'111'
p951
aF1.7365000000000002
aa(lp952
S'HCDR3'
p953
aS'48'
p954
aF-2.4510000000000001
aa(lp955
S'HCDR3'
p956
aS'47'
p957
aF-5.7653999999999996
aa(lp958
S'HCDR3'
p959
aS'46'
p960
aF2586.0396999999998
aa(lp961
S'HCDR3'
p962
aS'45'
p963
aF11829027.2863
aa(lp964
S'HCDR3'
p965
aS'44'
p966
aF603960.91940000001
aa(lp967
S'HCDR3'
p968
aS'43'
p969
aF7.7662000000000013
aa(lp970
S'HCDR3'
p971
aS'42'
p972
aF0.0077000000000000124
aa(lp973
S'HV'
p974
aS'119'
p975
aF3.5739999999999998
aa(lp976
S'HV'
p977
aS'118'
p978
aF2.4882
aa(lp979
S'KV'
p980
aS'32'
p981
aF118.4391
aa(lp982
S'KV'
p983
aS'33'
p984
aF214.99699999999999
aa(lp985
S'KV'
p986
aS'30'
p987
aF-0.27099999999999991
aa(lp988
S'KV'
p989
aS'31'
p990
aF-3.6002999999999998
aa(lp991
S'KV'
p992
aS'36'
p993
aF-7.6092000000000013
aa(lp994
S'KV'
p995
aS'37'
p996
aF51.022500000000001
aa(lp997
S'KV'
p998
aS'34'
p999
aF39.112499999999997
aa(lp1000
S'KV'
p1001
aS'35'
p1002
aF11138.374399999999
aa(lp1003
S'KV'
p1004
aS'38'
p1005
aF10000000016.356602
aa(lp1006
S'KV'
p1007
aS'39'
p1008
aF9999999966.9812012
aa(lp1009
S'KCDR3'
p1010
aS'117'
p1011
aF-29.157399999999999
aa(lp1012
S'HCDR3'
p1013
aS'219'
p1014
aF438.38559999999995
aa(lp1015
S'HCDR3'
p1016
aS'218'
p1017
aF-7.7218
aa(lp1018
S'KCDR3'
p1019
aS'26'
p1020
aF18028.917099999999
aa(lp1021
S'KCDR3'
p1022
aS'116'
p1023
aF-8.6888000000000005
aa(lp1024
S'KCDR3'
p1025
aS'20'
p1026
aF8379.7403000000013
aa(lp1027
S'KCDR3'
p1028
aS'21'
p1029
aF311998.01879999996
aa(lp1030
S'KCDR3'
p1031
aS'22'
p1032
aF422.55189999999999
aa(lp1033
S'KCDR3'
p1034
aS'23'
p1035
aF0.22300000000000009
aa(lp1036
S'HCDR3'
p1037
aS'211'
p1038
aF6.7741000000000007
aa(lp1039
S'HCDR3'
p1040
aS'210'
p1041
aF76137.627900000007
aa(lp1042
S'HCDR3'
p1043
aS'213'
p1044
aF-0.22630000000000017
aa(lp1045
S'HCDR3'
p1046
aS'212'
p1047
aF-11.2957
aa(lp1048
S'HCDR3'
p1049
aS'215'
p1050
aF1.9647999999999999
aa(lp1051
S'HCDR3'
p1052
aS'214'
p1053
aF36663.401099999995
aa(lp1054
S'HCDR3'
p1055
aS'217'
p1056
aF13355.508199999998
aa(lp1057
S'HCDR3'
p1058
aS'216'
p1059
aF348261.16109999997
aa(lp1060
S'KCDR3'
p1061
aS'92'
p1062
aF223.11060000000001
aa(lp1063
S'KCDR3'
p1064
aS'128'
p1065
aF29808.9712
aa(lp1066
S'HCDR3'
p1067
aS'59'
p1068
aF1.3471
aa(lp1069
S'KCDR3'
p1070
aS'119'
p1071
aF23644.587100000001
aa(lp1072
S'KCDR3'
p1073
aS'118'
p1074
aF-27.1922
aa(lp1075
S'KCDR3'
p1076
aS'124'
p1077
aF15718.8981
aa(lp1078
S'HCDR3'
p1079
aS'8'
aF0.071999999999999981
aa(lp1080
S'HCDR3'
p1081
aS'9'
aF0.099799999999999986
aa(lp1082
S'HCDR3'
p1083
aS'6'
aF-1.0047000000000001
aa(lp1084
S'HCDR3'
p1085
aS'7'
aF-0.058499999999999996
aa(lp1086
S'HCDR3'
p1087
aS'4'
aF-0.0436
aa(lp1088
S'HCDR3'
p1089
aS'5'
aF0.094299999999999995
aa(lp1090
S'HCDR3'
p1091
aS'2'
aF-0.079399999999999998
aa(lp1092
S'HCDR3'
p1093
aS'3'
aF-0.081600000000000006
aa(lp1094
S'HCDR3'
p1095
aS'1'
aF0.4415
aa(lp1096
S'KCDR3'
p1097
aS'1'
aF2.4364999999999997
aa(lp1098
S'HV'
p1099
aS'59'
p1100
aF-4.6619999999999999
aa(lp1101
S'HV'
p1102
aS'58'
p1103
aF8.1085999999999991
aa(lp1104
S'KCDR3'
p1105
aS'5'
aF1191047.0536
aa(lp1106
S'KCDR3'
p1107
aS'4'
aF-14.911100000000001
aa(lp1108
S'KCDR3'
p1109
aS'7'
aF49.097099999999998
aa(lp1110
S'KCDR3'
p1111
aS'6'
aF-6.5081000000000007
aa(lp1112
S'HV'
p1113
aS'53'
p1114
aF3.7640000000000002
aa(lp1115
S'HV'
p1116
aS'52'
p1117
aF4.2277999999999993
aa(lp1118
S'HV'
p1119
aS'51'
p1120
aF2.3489
aa(lp1121
S'HV'
p1122
aS'50'
p1123
aF4.5821000000000005
aa(lp1124
S'HV'
p1125
aS'57'
p1126
aF4.5037000000000003
aa(lp1127
S'HV'
p1128
aS'56'
p1129
aF4.9203999999999999
aa(lp1130
S'HV'
p1131
aS'55'
p1132
aF4.1647999999999996
aa(lp1133
S'HV'
p1134
aS'54'
p1135
aF4.3723000000000001
aa(lp1136
S'LCDR3'
p1137
aS'37'
p1138
aF27745.2274
aa(lp1139
S'HCDR3'
p1140
aS'329'
p1141
aF11591764.9277
aa(lp1142
S'HCDR3'
p1143
aS'328'
p1144
aF622231963.63040006
aa(lp1145
S'HCDR3'
p1146
aS'325'
p1147
aF70884070.583099991
aa(lp1148
S'HCDR3'
p1149
aS'324'
p1150
aF33.671300000000002
aa(lp1151
S'HCDR3'
p1152
aS'327'
p1153
aF9999999872.2263012
aa(lp1154
S'HCDR3'
p1155
aS'326'
p1156
aF10000000044.101801
aa(lp1157
S'HCDR3'
p1158
aS'321'
p1159
aF1102361726.5149002
aa(lp1160
S'HCDR3'
p1161
aS'320'
p1162
aF148392245.85520002
aa(lp1163
S'HCDR3'
p1164
aS'323'
p1165
aF10000000030.915201
aa(lp1166
S'HCDR3'
p1167
aS'322'
p1168
aF16939946.593200002
aa(lp1169
S'HCDR3'
p1170
aS'145'
p1171
aF7912134.7242999999
aa(lp1172
S'HCDR3'
p1173
aS'144'
p1174
aF290177.56
aa(lp1175
S'HCDR3'
p1176
aS'147'
p1177
aF4.4265999999999996
aa(lp1178
S'HCDR3'
p1179
aS'146'
p1180
aF4924.1713
aa(lp1181
S'HCDR3'
p1182
aS'417'
p1183
aF852764.03979999991
aa(lp1184
S'KCDR3'
p1185
aS'35'
p1186
aF10.096800000000002
aa(lp1187
S'KCDR3'
p1188
aS'3'
aF-4.7952000000000004
aa(lp1189
S'HCDR3'
p1190
aS'140'
p1191
aF-6.7961
aa(lp1192
S'KCDR3'
p1193
aS'160'
p1194
aF44.197900000000004
aa(lp1195
S'KCDR3'
p1196
aS'161'
p1197
aF44.619900000000001
aa(lp1198
S'KCDR3'
p1199
aS'162'
p1200
aF242.8355
aa(lp1201
S'KCDR3'
p1202
aS'96'
p1203
aF54.163699999999999
aa(lp1204
S'KCDR3'
p1205
aS'164'
p1206
aF397.3279
aa(lp1207
S'HCDR3'
p1208
aS'415'
p1209
aF4458276267.0724001
aa(lp1210
S'KCDR3'
p1211
aS'93'
p1212
aF123338.0965
aa(lp1213
S'KCDR3'
p1214
aS'167'
p1215
aF442743.50230000005
aa(lp1216
S'KCDR3'
p1217
aS'168'
p1218
aF15190583.2092
aa(lp1219
S'KCDR3'
p1220
aS'169'
p1221
aF22096.278399999999
aa(lp1222
S'HCDR3'
p1223
aS'414'
p1224
aF9999999988.3150005
aa(lp1225
S'KCDR3'
p1226
aS'99'
p1227
aF2.3442999999999996
aa(lp1228
S'KCDR3'
p1229
aS'98'
p1230
aF-5.4954999999999998
aa(lp1231
S'HCDR3'
p1232
aS'138'
p1233
aF13855.155999999999
aa(lp1234
S'HCDR3'
p1235
aS'139'
p1236
aF6719957.7420999995
aa(lp1237
S'KCDR3'
p1238
aS'69'
p1239
aF512967318.63480002
aa(lp1240
S'HCDR3'
p1241
aS'130'
p1242
aF-0.22469999999999946
aa(lp1243
S'HCDR3'
p1244
aS'131'
p1245
aF133730.8094
aa(lp1246
S'HCDR3'
p1247
aS'132'
p1248
aF9.9741999999999997
aa(lp1249
S'HCDR3'
p1250
aS'133'
p1251
aF0.3972
aa(lp1252
S'HCDR3'
p1253
aS'134'
p1254
aF118.1156
aa(lp1255
S'HCDR3'
p1256
aS'135'
p1257
aF1.4733000000000001
aa(lp1258
S'HCDR3'
p1259
aS'136'
p1260
aF9.4739000000000004
aa(lp1261
S'HCDR3'
p1262
aS'137'
p1263
aF2038.8722
aa(lp1264
S'HCDR3'
p1265
aS'426'
p1266
aF10000000236.098701
aa(lp1267
S'HCDR3'
p1268
aS'427'
p1269
aF10000000313.630501
aa(lp1270
S'HCDR3'
p1271
aS'424'
p1272
aF9999999889.9314003
aa(lp1273
S'HV'
p1274
aS'47'
p1275
aF4.1371000000000002
aa(lp1276
S'HCDR3'
p1277
aS'422'
p1278
aF10000000294.1611
aa(lp1279
S'HCDR3'
p1280
aS'423'
p1281
aF10000000117.3451
aa(lp1282
S'HCDR3'
p1283
aS'420'
p1284
aF-49.6282
aa(lp1285
S'HCDR3'
p1286
aS'421'
p1287
aF522724.36820000003
aa(lp1288
S'HCDR3'
p1289
aS'428'
p1290
aF9999999889.5646
aa(lp1291
S'LV'
p1292
aS'17'
p1293
aF11867.808499999999
aa(lp1294
S'LV'
p1295
aS'16'
p1296
aF1582.7640000000001
aa(lp1297
S'KV'
p1298
aS'24'
p1299
aF-0.36180000000000057
aa(lp1300
S'KCDR3'
p1301
aS'14'
p1302
aF405137072.25520003
aa(lp1303
S'LV'
p1304
aS'7'
aF421.54850000000005
aa(lp1305
S'HV'
p1306
aS'48'
p1307
aF15.805199999999999
aa(lp1308
S'HV'
p1309
aS'49'
p1310
aF4.5747999999999998
aa(lp1311
S'HCDR3'
p1312
aS'255'
p1313
aF-26.8917
aa(lp1314
S'HCDR3'
p1315
aS'254'
p1316
aF-8.6318000000000001
aa(lp1317
S'HCDR3'
p1318
aS'257'
p1319
aF24957.029400000003
aa(lp1320
S'HCDR3'
p1321
aS'256'
p1322
aF175.32039999999998
aa(lp1323
S'HCDR3'
p1324
aS'251'
p1325
aF174109.7936
aa(lp1326
S'HCDR3'
p1327
aS'250'
p1328
aF332594.86589999998
aa(lp1329
S'HCDR3'
p1330
aS'253'
p1331
aF92351.74089999999
aa(lp1332
S'HCDR3'
p1333
aS'252'
p1334
aF9999999997.5463009
aa(lp1335
S'HCDR3'
p1336
aS'259'
p1337
aF9999999996.448801
aa(lp1338
S'HCDR3'
p1339
aS'258'
p1340
aF37783.518299999996
aa(lp1341
S'KCDR3'
p1342
aS'11'
p1343
aF6932.9472000000005
aa(lp1344
S'HCDR3'
p1345
aS'36'
p1346
aF-0.35990000000000011
aa(lp1347
S'HCDR3'
p1348
aS'37'
p1349
aF0.8892000000000001
aa(lp1350
S'HCDR3'
p1351
aS'34'
p1352
aF0.9899
aa(lp1353
S'HCDR3'
p1354
aS'35'
p1355
aF396.96159999999998
aa(lp1356
S'HCDR3'
p1357
aS'32'
p1358
aF0.3357
aa(lp1359
S'HCDR3'
p1360
aS'33'
p1361
aF-0.77529999999999988
aa(lp1362
S'HV'
p1363
aS'128'
p1364
aF0.27140000000000003
aa(lp1365
S'HV'
p1366
aS'129'
p1367
aF5.4000000000000004
aa(lp1368
S'HV'
p1369
aS'126'
p1370
aF0.99490000000000001
aa(lp1371
S'HV'
p1372
aS'127'
p1373
aF0.91859999999999997
aa(lp1374
S'HV'
p1375
aS'124'
p1376
aF1.4135
aa(lp1377
S'HV'
p1378
aS'125'
p1379
aF8.3047000000000004
aa(lp1380
S'HV'
p1381
aS'122'
p1382
aF2.4043000000000001
aa(lp1383
S'HV'
p1384
aS'123'
p1385
aF11.799800000000001
aa(lp1386
S'HV'
p1387
aS'120'
p1388
aF10.222200000000001
aa(lp1389
S'HV'
p1390
aS'121'
p1391
aF3.1341999999999999
aa(lp1392
S'LCDR3'
p1393
aS'25'
p1394
aF-0.18999999999999995
aa(lp1395
S'LCDR3'
p1396
aS'24'
p1397
aF102.19410000000001
aa(lp1398
S'LV'
p1399
aS'5'
aF30282.485700000001
aa(lp1400
S'LCDR3'
p1401
aS'26'
p1402
aF-26.528799999999997
aa(lp1403
S'LCDR3'
p1404
aS'21'
p1405
aF-7.8720999999999997
aa(lp1406
S'LCDR3'
p1407
aS'20'
p1408
aF-17.617999999999999
aa(lp1409
S'LCDR3'
p1410
aS'23'
p1411
aF-32.903599999999997
aa(lp1412
S'LCDR3'
p1413
aS'22'
p1414
aF355790007.2579
aa(lp1415
S'LCDR3'
p1416
aS'29'
p1417
aF-5.4756999999999998
aa(lp1418
S'LCDR3'
p1419
aS'28'
p1420
aF-13.684200000000001
aa(lp1421
S'KV'
p1422
aS'49'
p1423
aF9999999965.5384007
aa(lp1424
S'KV'
p1425
aS'48'
p1426
aF10000000006.101301
aa(lp1427
S'KV'
p1428
aS'43'
p1429
aF9999999827.8864002
aa(lp1430
S'KCDR3'
p1431
aS'72'
p1432
aF3617.1430999999998
aa(lp1433
S'KV'
p1434
aS'41'
p1435
aF9999999955.1658001
aa(lp1436
S'KV'
p1437
aS'40'
p1438
aF9999999964.3622017
aa(lp1439
S'KV'
p1440
aS'47'
p1441
aF9999999966.7153015
aa(lp1442
S'KV'
p1443
aS'46'
p1444
aF861511089.02110004
aa(lp1445
S'KV'
p1446
aS'45'
p1447
aF9999999737.822401
aa(lp1448
S'KV'
p1449
aS'44'
p1450
aF8289041462.2019005
aa(lp1451
S'HCDR3'
p1452
aS'374'
p1453
aF-0.92799999999999994
aa(lp1454
S'HV'
p1455
aS'18'
p1456
aF8.5616000000000003
aa(lp1457
S'LV'
p1458
aS'3'
aF746840348.45160007
aa(lp1459
S'HV'
p1460
aS'15'
p1461
aF1.1808000000000001
aa(lp1462
S'HCDR3'
p1463
aS'379'
p1464
aF444.34219999999999
aa(lp1465
S'KJ'
p1466
aS'1'
aF-0.0147
aa(lp1467
S'LV'
p1468
aS'2'
aF933621090.09970009
aa(lp1469
S'KJ'
p1470
aS'2'
aF-0.0147
aa(lp1471
S'HV'
p1472
aS'80'
p1473
aF2.7404000000000002
aa(lp1474
S'HV'
p1475
aS'81'
p1476
aF1.6622000000000001
aa(lp1477
S'HV'
p1478
aS'82'
p1479
aF-6.4961000000000002
aa(lp1480
S'HV'
p1481
aS'83'
p1482
aF1.4649999999999999
aa(lp1483
S'HV'
p1484
aS'84'
p1485
aF3.4401999999999999
aa(lp1486
S'HV'
p1487
aS'85'
p1488
aF3.4428999999999998
aa(lp1489
S'HV'
p1490
aS'86'
p1491
aF3.4137
aa(lp1492
S'HV'
p1493
aS'87'
p1494
aF6.4291999999999998
aa(lp1495
S'HV'
p1496
aS'88'
p1497
aF0.64440000000000008
aa(lp1498
S'HV'
p1499
aS'89'
p1500
aF2.4241999999999999
aa(lp1501
S'KCDR3'
p1502
aS'126'
p1503
aF324.8793
aa(lp1504
S'KCDR3'
p1505
aS'127'
p1506
aF37042.080500000004
aa(lp1507
S'KCDR3'
p1508
aS'120'
p1509
aF141160.70019999999
aa(lp1510
S'KCDR3'
p1511
aS'121'
p1512
aF15596.767400000001
aa(lp1513
S'KCDR3'
p1514
aS'122'
p1515
aF5940873.7538999999
aa(lp1516
S'KCDR3'
p1517
aS'123'
p1518
aF179674.06149999998
aa(lp1519
S'LV'
p1520
aS'1'
aF50.585999999999999
aa(lp1521
S'HCDR3'
p1522
aS'174'
p1523
aF62984873.991499998
aa(lp1524
S'HCDR3'
p1525
aS'175'
p1526
aF25.930999999999997
aa(lp1527
S'HCDR3'
p1528
aS'176'
p1529
aF8876152.8922999986
aa(lp1530
S'HCDR3'
p1531
aS'177'
p1532
aF-2.6202999999999999
aa(lp1533
S'HCDR3'
p1534
aS'170'
p1535
aF43.422800000000002
aa(lp1536
S'HCDR3'
p1537
aS'171'
p1538
aF32139.065499999997
aa(lp1539
S'HCDR3'
p1540
aS'172'
p1541
aF5.2525000000000004
aa(lp1542
S'HCDR3'
p1543
aS'173'
p1544
aF1238093.3204000001
aa(lp1545
S'KCDR3'
p1546
aS'34'
p1547
aF237.1516
aa(lp1548
S'HCDR3'
p1549
aS'178'
p1550
aF6703838.6502
aa(lp1551
S'HCDR3'
p1552
aS'179'
p1553
aF91479.938599999994
aa(lp1554
S'HCDR3'
p1555
aS'372'
p1556
aF707141600.05789995
aa(lp1557
S'HCDR3'
p1558
aS'373'
p1559
aF173323664.26440001
aa(lp1560
S'HCDR3'
p1561
aS'370'
p1562
aF6008380859.8422003
aa(lp1563
S'HCDR3'
p1564
aS'371'
p1565
aF9999999879.7056007
aa(lp1566
S'HCDR3'
p1567
aS'376'
p1568
aF10000000012.291801
aa(lp1569
S'HCDR3'
p1570
aS'377'
p1571
aF9999999954.4096012
aa(lp1572
S'HV'
p1573
aS'19'
p1574
aF-6.9618000000000002
aa(lp1575
S'HCDR3'
p1576
aS'375'
p1577
aF9999999962.8814011
aa(lp1578
S'HV'
p1579
aS'17'
p1580
aF4.4976000000000003
aa(lp1581
S'HV'
p1582
aS'16'
p1583
aF9.4952000000000005
aa(lp1584
S'HCDR3'
p1585
aS'378'
p1586
aF-2.8179000000000007
aa(lp1587
S'HV'
p1588
aS'14'
p1589
aF0.93110000000000004
aa(lp1590
S'HV'
p1591
aS'13'
p1592
aF5.1357999999999997
aa(lp1593
S'HV'
p1594
aS'12'
p1595
aF15.719900000000001
aa(lp1596
S'HV'
p1597
aS'11'
p1598
aF1.0370000000000001
aa(lp1599
S'HV'
p1600
aS'10'
p1601
aF3.8122000000000003
aa(lp1602
S'HCDR3'
p1603
aS'198'
p1604
aF-5.3931000000000004
aa(lp1605
S'HCDR3'
p1606
aS'199'
p1607
aF8510.5079000000005
aa(lp1608
S'HCDR3'
p1609
aS'192'
p1610
aF92392.119399999996
aa(lp1611
S'HCDR3'
p1612
aS'193'
p1613
aF3137320.3284
aa(lp1614
S'HCDR3'
p1615
aS'190'
p1616
aF4559102131.2968998
aa(lp1617
S'HCDR3'
p1618
aS'191'
p1619
aF10217.115899999999
aa(lp1620
S'HCDR3'
p1621
aS'196'
p1622
aF0.91290000000000004
aa(lp1623
S'HCDR3'
p1624
aS'197'
p1625
aF-2.6525000000000003
aa(lp1626
S'HCDR3'
p1627
aS'194'
p1628
aF3336.7150000000001
aa(lp1629
S'HCDR3'
p1630
aS'195'
p1631
aF206.57979999999998
aa(lp1632
S'KCDR3'
p1633
aS'159'
p1634
aF170.85979999999998
aa(lp1635
S'KCDR3'
p1636
aS'158'
p1637
aF6.2702
aa(lp1638
S'KCDR3'
p1639
aS'151'
p1640
aF227484.8069
aa(lp1641
S'KCDR3'
p1642
aS'150'
p1643
aF1065720175.4942
aa(lp1644
S'KCDR3'
p1645
aS'153'
p1646
aF1413.4146999999998
aa(lp1647
S'KCDR3'
p1648
aS'152'
p1649
aF603456.4003000001
aa(lp1650
S'KCDR3'
p1651
aS'155'
p1652
aF357.83439999999996
aa(lp1653
S'KCDR3'
p1654
aS'154'
p1655
aF45378.379300000001
aa(lp1656
S'KCDR3'
p1657
aS'157'
p1658
aF7659281.8462000005
aa(lp1659
S'KCDR3'
p1660
aS'156'
p1661
aF1577.9658999999999
aa(lp1662
S'HCDR3'
p1663
aS'291'
p1664
aF259981.70259999999
aa(lp1665
S'HCDR3'
p1666
aS'290'
p1667
aF333775.1667
aa(lp1668
S'HCDR3'
p1669
aS'293'
p1670
aF9999999952.2416
aa(lp1671
S'HCDR3'
p1672
aS'292'
p1673
aF9.6555
aa(lp1674
S'HCDR3'
p1675
aS'295'
p1676
aF40686519.281100005
aa(lp1677
S'HCDR3'
p1678
aS'294'
p1679
aF1348326.5589000001
aa(lp1680
S'HCDR3'
p1681
aS'297'
p1682
aF134931792.19849998
aa(lp1683
S'HCDR3'
p1684
aS'296'
p1685
aF4877434762.6046
aa(lp1686
S'HCDR3'
p1687
aS'299'
p1688
aF45187928.300999999
aa(lp1689
S'HCDR3'
p1690
aS'298'
p1691
aF948078.51040000003
aa(lp1692
S'HCDR3'
p1693
aS'101'
p1694
aF418.3535
aa(lp1695
S'HCDR3'
p1696
aS'100'
p1697
aF-1.9986000000000002
aa(lp1698
S'HCDR3'
p1699
aS'103'
p1700
aF179752018.90200001
aa(lp1701
S'HCDR3'
p1702
aS'102'
p1703
aF-1.0867
aa(lp1704
S'HCDR3'
p1705
aS'105'
p1706
aF36809.360099999998
aa(lp1707
S'HCDR3'
p1708
aS'104'
p1709
aF-2.0638000000000001
aa(lp1710
S'HCDR3'
p1711
aS'107'
p1712
aF8202.6880999999994
aa(lp1713
S'HCDR3'
p1714
aS'106'
p1715
aF40237.652600000001
aa(lp1716
S'HCDR3'
p1717
aS'109'
p1718
aF0.8024
aa(lp1719
S'HCDR3'
p1720
aS'108'
p1721
aF-0.95479999999999998
aa(lp1722
S'HCDR3'
p1723
aS'72'
p1724
aF-6.6638000000000002
aa(lp1725
S'HCDR3'
p1726
aS'73'
p1727
aF281.05100000000004
aa(lp1728
S'HCDR3'
p1729
aS'70'
p1730
aF10000000074.274101
aa(lp1731
S'HCDR3'
p1732
aS'71'
p1733
aF-2.2183000000000002
aa(lp1734
S'HCDR3'
p1735
aS'76'
p1736
aF8230.538700000001
aa(lp1737
S'HCDR3'
p1738
aS'77'
p1739
aF-5.5078999999999994
aa(lp1740
S'HCDR3'
p1741
aS'74'
p1742
aF0.18959999999999955
aa(lp1743
S'HCDR3'
p1744
aS'75'
p1745
aF235141.11970000001
aa(lp1746
S'LV'
p1747
aS'26'
p1748
aF34.613900000000001
aa(lp1749
S'LV'
p1750
aS'27'
p1751
aF4.9328000000000003
aa(lp1752
S'HCDR3'
p1753
aS'78'
p1754
aF629593.56570000004
aa(lp1755
S'HCDR3'
p1756
aS'79'
p1757
aF-7.3308
aa(lp1758
S'LV'
p1759
aS'22'
p1760
aF122.623
aa(lp1761
S'LV'
p1762
aS'23'
p1763
aF4459799.2516000001
aa(lp1764
S'LV'
p1765
aS'20'
p1766
aF195.01009999999999
aa(lp1767
S'KCDR3'
p1768
aS'73'
p1769
aF100166303.5747
aa(lp1770
S'KCDR3'
p1771
aS'38'
p1772
aF211.37090000000001
aa(lp1773
S'HCDR3'
p1774
aS'152'
p1775
aF22.3066
aa(lp1776
S'KCDR3'
p1777
aS'13'
p1778
aF1.0462000000000007
aa(lp1779
S'KCDR3'
p1780
aS'177'
p1781
aF2296.4547000000002
aa(lp1782
S'KCDR3'
p1783
aS'37'
p1784
aF1.3975
aa(lp1785
S'KCDR3'
p1786
aS'36'
p1787
aF-9.7045999999999992
aa(lp1788
S'HCDR3'
p1789
aS'208'
p1790
aF69194281.350999996
aa(lp1791
S'HCDR3'
p1792
aS'209'
p1793
aF166.1551
aa(lp1794
S'KCDR3'
p1795
aS'33'
p1796
aF230.7079
aa(lp1797
S'KCDR3'
p1798
aS'32'
p1799
aF1919497.1964999998
aa(lp1800
S'KCDR3'
p1801
aS'31'
p1802
aF2981416204.3361998
aa(lp1803
S'KCDR3'
p1804
aS'30'
p1805
aF9999999939.6294003
aa(lp1806
S'HCDR3'
p1807
aS'202'
p1808
aF1150646.3626999999
aa(lp1809
S'HCDR3'
p1810
aS'203'
p1811
aF2812828.0494999997
aa(lp1812
S'HCDR3'
p1813
aS'200'
p1814
aF9999999527.7471008
aa(lp1815
S'HCDR3'
p1816
aS'201'
p1817
aF5135.6707999999999
aa(lp1818
S'HCDR3'
p1819
aS'206'
p1820
aF2175.2984999999999
aa(lp1821
S'HCDR3'
p1822
aS'207'
p1823
aF-24.088900000000002
aa(lp1824
S'HCDR3'
p1825
aS'204'
p1826
aF1.1154999999999999
aa(lp1827
S'HCDR3'
p1828
aS'205'
p1829
aF8.9610000000000003
aa(lp1830
S'KJ'
p1831
aS'5'
aF-0.0147
aa(lp1832
S'KCDR3'
p1833
aS'79'
p1834
aF142.62710000000001
aa(lp1835
S'HCDR3'
p1836
aS'401'
p1837
aF3904060529.5363002
aa(lp1838
S'KCDR3'
p1839
aS'95'
p1840
aF1266.1871000000001
aa(lp1841
S'LCDR3'
p1842
aS'18'
p1843
aF-29.773199999999999
aa(lp1844
S'LCDR3'
p1845
aS'19'
p1846
aF-2.5436000000000001
aa(lp1847
S'KCDR3'
p1848
aS'94'
p1849
aF1367971805.9798
aa(lp1850
S'LCDR3'
p1851
aS'14'
p1852
aF-8.8394999999999992
aa(lp1853
S'LCDR3'
p1854
aS'15'
p1855
aF-30.596999999999998
aa(lp1856
S'LCDR3'
p1857
aS'16'
p1858
aF-32.796399999999998
aa(lp1859
S'LV'
p1860
aS'4'
aF3834017.9200000004
aa(lp1861
S'LCDR3'
p1862
aS'10'
p1863
aF963.0104
aa(lp1864
S'KCDR3'
p1865
aS'97'
p1866
aF198.70189999999999
aa(lp1867
S'LCDR3'
p1868
aS'12'
p1869
aF-15.3667
aa(lp1870
S'LCDR3'
p1871
aS'13'
p1872
aF-23.108899999999998
aa(lp1873
S'KCDR3'
p1874
aS'163'
p1875
aF1946743.8795
aa(lp1876
S'KCDR3'
p1877
aS'91'
p1878
aF16604.881100000002
aa(lp1879
S'KCDR3'
p1880
aS'2'
aF-0.98609999999999998
aa(lp1881
S'KCDR3'
p1882
aS'188'
p1883
aF2.8034000000000034
aa(lp1884
S'KCDR3'
p1885
aS'90'
p1886
aF6987.2237000000005
aa(lp1887
S'KCDR3'
p1888
aS'15'
p1889
aF3.6304000000000007
aa(lp1890
S'KCDR3'
p1891
aS'166'
p1892
aF1030.2046
aa(lp1893
S'LJ'
p1894
aS'3'
aF-0.0147
aa(lp1895
S'LJ'
p1896
aS'2'
aF-0.0147
aa(lp1897
S'LJ'
p1898
aS'1'
aF-0.0147
aa(lp1899
S'KCDR3'
p1900
aS'189'
p1901
aF-30.267700000000001
aa(lp1902
S'LJ'
p1903
aS'7'
aF-0.0147
aa(lp1904
S'KCDR3'
p1905
aS'139'
p1906
aF-9.0276999999999994
aa(lp1907
S'LJ'
p1908
aS'5'
aF-0.0147
aa(lp1909
S'LJ'
p1910
aS'4'
aF-0.0147
aa(lp1911
S'KCDR3'
p1912
aS'138'
p1913
aF-1.9094999999999995
aa(lp1914
S'HCDR3'
p1915
aS'98'
p1916
aF-9.3161000000000005
aa(lp1917
S'HCDR3'
p1918
aS'99'
p1919
aF-5.5678999999999998
aa(lp1920
S'HCDR3'
p1921
aS'338'
p1922
aF26841.885600000001
aa(lp1923
S'HCDR3'
p1924
aS'339'
p1925
aF82587452.444099993
aa(lp1926
S'HCDR3'
p1927
aS'336'
p1928
aF525.49490000000003
aa(lp1929
S'HCDR3'
p1930
aS'337'
p1931
aF973.11569999999995
aa(lp1932
S'HCDR3'
p1933
aS'334'
p1934
aF478744130.10769999
aa(lp1935
S'HCDR3'
p1936
aS'335'
p1937
aF14510.013300000001
aa(lp1938
S'HCDR3'
p1939
aS'94'
p1940
aF5.9595000000000002
aa(lp1941
S'HCDR3'
p1942
aS'95'
p1943
aF-2.7343999999999999
aa(lp1944
S'HCDR3'
p1945
aS'96'
p1946
aF1.9647000000000001
aa(lp1947
S'HCDR3'
p1948
aS'331'
p1949
aF10000000253.770401
aa(lp1950
S'KCDR3'
p1951
aS'101'
p1952
aF165246.758
aa(lp1953
S'KCDR3'
p1954
aS'17'
p1955
aF510.3021
aa(lp1956
S'KCDR3'
p1957
aS'12'
p1958
aF117995.66929999999
aa(lp1959
S'KCDR3'
p1960
aS'115'
p1961
aF23.500699999999998
aa(lp1962
S'KCDR3'
p1963
aS'114'
p1964
aF188.54680000000002
aa(lp1965
S'KV'
p1966
aS'8'
aF-7.9251000000000005
aa(lp1967
S'KV'
p1968
aS'9'
aF-6.1032000000000011
aa(lp1969
S'KCDR3'
p1970
aS'111'
p1971
aF2268.9317000000001
aa(lp1972
S'KCDR3'
p1973
aS'135'
p1974
aF-3.0456000000000003
aa(lp1975
S'KCDR3'
p1976
aS'113'
p1977
aF7.2506999999999993
aa(lp1978
S'KCDR3'
p1979
aS'112'
p1980
aF399.5899
aa(lp1981
S'KV'
p1982
aS'2'
aF9.2054999999999989
aa(lp1983
S'KV'
p1984
aS'1'
aF16.627300000000002
aa(lp1985
S'KV'
p1986
aS'6'
aF-10.3756
aa(lp1987
S'KV'
p1988
aS'7'
aF-4.4911999999999992
aa(lp1989
S'KV'
p1990
aS'4'
aF-8.0404
aa(lp1991
S'KV'
p1992
aS'5'
aF-6.8461999999999996
aa(lp1993
S'HCDR3'
p1994
aS'419'
p1995
aF9999999777.4716015
aa(lp1996
S'HCDR3'
p1997
aS'418'
p1998
aF9999999545.7895012
aa(lp1999
S'HCDR3'
p2000
aS'149'
p2001
aF-1.2709000000000001
aa(lp2002
S'HCDR3'
p2003
aS'148'
p2004
aF1233102948.2063
aa(lp2005
S'HCDR3'
p2006
aS'413'
p2007
aF21614.266900000002
aa(lp2008
S'HCDR3'
p2009
aS'412'
p2010
aF9999999917.6044006
aa(lp2011
S'HCDR3'
p2012
aS'411'
p2013
aF9999999925.8009014
aa(lp2014
S'HCDR3'
p2015
aS'410'
p2016
aF8.0782999999999987
aa(lp2017
S'HCDR3'
p2018
aS'141'
p2019
aF10000000068.436501
aa(lp2020
S'HCDR3'
p2021
aS'416'
p2022
aF10000000320.102201
aa(lp2023
S'HCDR3'
p2024
aS'143'
p2025
aF-7.8041
aa(lp2026
S'HCDR3'
p2027
aS'142'
p2028
aF100033.44319999999
aa(lp2029
S'HV'
p2030
aS'44'
p2031
aF3.3953000000000002
aa(lp2032
S'HV'
p2033
aS'45'
p2034
aF3.4926999999999997
aa(lp2035
S'HV'
p2036
aS'46'
p2037
aF4.5907999999999998
aa(lp2038
S'HCDR3'
p2039
aS'388'
p2040
aF9999999986.2442017
aa(lp2041
S'HV'
p2042
aS'40'
p2043
aF3.9279000000000002
aa(lp2044
S'HV'
p2045
aS'41'
p2046
aF4.7188999999999997
aa(lp2047
S'HV'
p2048
aS'42'
p2049
aF1.6217000000000001
aa(lp2050
S'HV'
p2051
aS'43'
p2052
aF4.7571000000000003
aa(lp2053
S'HCDR3'
p2054
aS'383'
p2055
aF10000000050.877501
aa(lp2056
S'HCDR3'
p2057
aS'382'
p2058
aF7263.6036000000004
aa(lp2059
S'HCDR3'
p2060
aS'381'
p2061
aF9999999986.9900017
aa(lp2062
S'HCDR3'
p2063
aS'380'
p2064
aF135415840.84729999
aa(lp2065
S'HCDR3'
p2066
aS'387'
p2067
aF7638172711.5159006
aa(lp2068
S'HCDR3'
p2069
aS'386'
p2070
aF121172771.16140001
aa(lp2071
S'HCDR3'
p2072
aS'385'
p2073
aF-40.839599999999997
aa(lp2074
S'HCDR3'
p2075
aS'384'
p2076
aF20147411.164100002
aa(lp2077
S'KCDR3'
p2078
aS'178'
p2079
aF13.270900000000001
aa(lp2080
S'KCDR3'
p2081
aS'9'
aF930.21469999999999
aa(lp2082
S'KCDR3'
p2083
aS'27'
p2084
aF217136742.10049999
aa(lp2085
S'KCDR3'
p2086
aS'10'
p2087
aF6159.9294
aa(lp2088
S'LV'
p2089
aS'28'
p2090
aF-5.5695999999999994
aa(lp2091
S'LV'
p2092
aS'29'
p2093
aF-6.4451000000000001
aa(lp2094
S'KCDR3'
p2095
aS'8'
aF2312.0871000000002
aa(lp2096
S'HCDR3'
p2097
aS'246'
p2098
aF-26.242899999999999
aa(lp2099
S'HCDR3'
p2100
aS'247'
p2101
aF4360.4357
aa(lp2102
S'HCDR3'
p2103
aS'244'
p2104
aF9999999946.4168015
aa(lp2105
S'HCDR3'
p2106
aS'245'
p2107
aF42249170.327699997
aa(lp2108
S'HCDR3'
p2109
aS'242'
p2110
aF10000000015.18
aa(lp2111
S'HCDR3'
p2112
aS'243'
p2113
aF44.435000000000002
aa(lp2114
S'HCDR3'
p2115
aS'240'
p2116
aF4129758.1368999998
aa(lp2117
S'HCDR3'
p2118
aS'241'
p2119
aF511.23429999999996
aa(lp2120
S'LV'
p2121
aS'32'
p2122
aF4.8394999999999992
aa(lp2123
S'KCDR3'
p2124
aS'71'
p2125
aF8762231.315200001
aa(lp2126
S'LV'
p2127
aS'24'
p2128
aF5623179.6646999996
aa(lp2129
S'HCDR3'
p2130
aS'248'
p2131
aF32814.992400000003
aa(lp2132
S'HCDR3'
p2133
aS'249'
p2134
aF16.1386
aa(lp2135
S'HCDR3'
p2136
aS'29'
p2137
aF-0.25219999999999998
aa(lp2138
S'HCDR3'
p2139
aS'28'
p2140
aF-5.1543000000000001
aa(lp2141
S'LV'
p2142
aS'25'
p2143
aF-19.108699999999999
aa(lp2144
S'HCDR3'
p2145
aS'21'
p2146
aF0.28120000000000001
aa(lp2147
S'HCDR3'
p2148
aS'20'
p2149
aF-0.98150000000000004
aa(lp2150
S'HCDR3'
p2151
aS'23'
p2152
aF-0.41259999999999997
aa(lp2153
S'HCDR3'
p2154
aS'22'
p2155
aF0.9171999999999999
aa(lp2156
S'HCDR3'
p2157
aS'25'
p2158
aF-3.6606000000000001
aa(lp2159
S'HCDR3'
p2160
aS'24'
p2161
aF-0.93159999999999998
aa(lp2162
S'HCDR3'
p2163
aS'27'
p2164
aF0.0247
aa(lp2165
S'HCDR3'
p2166
aS'26'
p2167
aF-1.4074
aa(lp2168
S'HV'
p2169
aS'139'
p2170
aF2.0389999999999997
aa(lp2171
S'HV'
p2172
aS'138'
p2173
aF11.932700000000001
aa(lp2174
S'HV'
p2175
aS'135'
p2176
aF9.4376999999999995
aa(lp2177
S'HV'
p2178
aS'134'
p2179
aF7.9778000000000002
aa(lp2180
S'HV'
p2181
aS'137'
p2182
aF9.6999999999999993
aa(lp2183
S'LV'
p2184
aS'21'
p2185
aF234.5497
aa(lp2186
S'HV'
p2187
aS'131'
p2188
aF0.83349999999999991
aa(lp2189
S'HV'
p2190
aS'130'
p2191
aF5.4119999999999999
aa(lp2192
S'HV'
p2193
aS'133'
p2194
aF9.3155999999999999
aa(lp2195
S'HV'
p2196
aS'132'
p2197
aF8.0800000000000001
aa(lp2198
S'KV'
p2199
aS'54'
p2200
aF2498388.4214000003
aa(lp2201
S'KV'
p2202
aS'55'
p2203
aF284.19819999999999
aa(lp2204
S'KV'
p2205
aS'56'
p2206
aF260.04910000000001
aa(lp2207
S'KV'
p2208
aS'57'
p2209
aF282.52699999999999
aa(lp2210
S'KV'
p2211
aS'50'
p2212
aF9999999956.4220009
aa(lp2213
S'KV'
p2214
aS'51'
p2215
aF294.3261
aa(lp2216
S'KV'
p2217
aS'52'
p2218
aF285.2371
aa(lp2219
S'KV'
p2220
aS'53'
p2221
aF-4.3553999999999995
aa(lp2222
S'KV'
p2223
aS'58'
p2224
aF272.11750000000001
aa(lp2225
S'KV'
p2226
aS'59'
p2227
aF273.33760000000001
aa(lp2228
S'KCDR3'
p2229
aS'194'
p2230
aF129833.25809999999
aa(lp2231
S'KCDR3'
p2232
aS'48'
p2233
aF19725.796699999999
aa(lp2234
S'KCDR3'
p2235
aS'49'
p2236
aF271.02600000000001
aa(lp2237
S'KCDR3'
p2238
aS'46'
p2239
aF109931.6535
aa(lp2240
S'KCDR3'
p2241
aS'47'
p2242
aF21227.5291
aa(lp2243
S'KCDR3'
p2244
aS'44'
p2245
aF5.0741000000000005
aa(lp2246
S'KCDR3'
p2247
aS'45'
p2248
aF-4.4908000000000001
aa(lp2249
S'KCDR3'
p2250
aS'42'
p2251
aF349.98560000000003
aa(lp2252
S'KCDR3'
p2253
aS'43'
p2254
aF-2.3319999999999999
aa(lp2255
S'KCDR3'
p2256
aS'40'
p2257
aF965788.57250000001
aa(lp2258
S'KCDR3'
p2259
aS'41'
p2260
aF58229976.872100003
aa(lp2261
S'LV'
p2262
aS'18'
p2263
aF100.31819999999999
aa(lp2264
S'KCDR3'
p2265
aS'165'
p2266
aF18433.846799999999
aa(lp2267
S'HCDR3'
p2268
aS'361'
p2269
aF9999999971.7062016
aa(lp2270
S'KJ'
p2271
aS'4'
aF-0.0147
aa(lp2272
S'HCDR3'
p2273
aS'360'
p2274
aF58743553.132400006
aa(lp2275
S'KCDR3'
p2276
aS'186'
p2277
aF329469201.97779995
aa(lp2278
S'KCDR3'
p2279
aS'75'
p2280
aF6796234.6198000005
aa(lp2281
S'HCDR3'
p2282
aS'363'
p2283
aF1205777418.783
aa(lp2284
S'HCDR3'
p2285
aS'362'
p2286
aF6115.1327000000001
aa(lp2287
S'HCDR3'
p2288
aS'365'
p2289
aF9999999820.2922001
aa(lp2290
S'HCDR3'
p2291
aS'364'
p2292
aF565473565.67480004
aa(lp2293
S'KCDR3'
p2294
aS'129'
p2295
aF727809.59570000006
aa(lp2296
S'HV'
p2297
aS'79'
p2298
aF2.8048000000000002
aa(lp2299
S'HV'
p2300
aS'78'
p2301
aF7.4459999999999997
aa(lp2302
S'HV'
p2303
aS'75'
p2304
aF2.8655999999999997
aa(lp2305
S'HV'
p2306
aS'74'
p2307
aF2.9809000000000001
aa(lp2308
S'HV'
p2309
aS'77'
p2310
aF7.5503
aa(lp2311
S'HV'
p2312
aS'76'
p2313
aF-4.3246000000000002
aa(lp2314
S'HV'
p2315
aS'71'
p2316
aF2.6932
aa(lp2317
S'HV'
p2318
aS'70'
p2319
aF3.335
aa(lp2320
S'HV'
p2321
aS'73'
p2322
aF2.1261999999999999
aa(lp2323
S'HV'
p2324
aS'72'
p2325
aF2.5301
aa(lp2326
S'HCDR3'
p2327
aS'389'
p2328
aF6228857247.0668001
aa(lp2329
S'KCDR3'
p2330
aS'187'
p2331
aF-24.096599999999999
aa(lp2332
S'KCDR3'
p2333
aS'184'
p2334
aF5620653.4525999995
aa(lp2335
S'KCDR3'
p2336
aS'185'
p2337
aF10000000327.857901
aa(lp2338
S'LCDR3'
p2339
aS'39'
p2340
aF256215217.1013
aa(lp2341
S'HCDR3'
p2342
aS'347'
p2343
aF3581587560.9211001
aa(lp2344
S'HCDR3'
p2345
aS'346'
p2346
aF16515.121599999999
aa(lp2347
S'HCDR3'
p2348
aS'345'
p2349
aF1511081220.7581
aa(lp2350
S'HCDR3'
p2351
aS'344'
p2352
aF13.8443
aa(lp2353
S'HCDR3'
p2354
aS'343'
p2355
aF32.673200000000001
aa(lp2356
S'HCDR3'
p2357
aS'342'
p2358
aF1.9702999999999999
aa(lp2359
S'HCDR3'
p2360
aS'341'
p2361
aF24548590.000100002
aa(lp2362
S'HCDR3'
p2363
aS'340'
p2364
aF186082518.53
aa(lp2365
S'HCDR3'
p2366
aS'349'
p2367
aF82790197.270599991
aa(lp2368
S'HCDR3'
p2369
aS'348'
p2370
aF9999999946.5151005
aa(lp2371
S'LCDR3'
p2372
aS'1'
aF10000000077.055801
aa(lp2373
S'KCDR3'
p2374
aS'148'
p2375
aF189538.87000000002
aa(lp2376
S'KCDR3'
p2377
aS'149'
p2378
aF6692.3483999999999
aa(lp2379
S'KCDR3'
p2380
aS'142'
p2381
aF226806.22750000001
aa(lp2382
S'KCDR3'
p2383
aS'143'
p2384
aF35.789299999999997
aa(lp2385
S'KCDR3'
p2386
aS'140'
p2387
aF-15.9346
aa(lp2388
S'KCDR3'
p2389
aS'141'
p2390
aF386.38200000000001
aa(lp2391
S'KCDR3'
p2392
aS'146'
p2393
aF573.36890000000005
aa(lp2394
S'KCDR3'
p2395
aS'147'
p2396
aF144118.29829999999
aa(lp2397
S'KCDR3'
p2398
aS'144'
p2399
aF-7.2565
aa(lp2400
S'KCDR3'
p2401
aS'145'
p2402
aF5.2046000000000001
aa(lp2403
S'HCDR3'
p2404
aS'282'
p2405
aF-21.832999999999998
aa(lp2406
S'HCDR3'
p2407
aS'283'
p2408
aF36583.7359
aa(lp2409
S'HCDR3'
p2410
aS'280'
p2411
aF397799344.95959997
aa(lp2412
S'HCDR3'
p2413
aS'281'
p2414
aF121.7563
aa(lp2415
S'HCDR3'
p2416
aS'286'
p2417
aF365548026.56189996
aa(lp2418
S'HCDR3'
p2419
aS'287'
p2420
aF9999999958.0921001
aa(lp2421
S'HCDR3'
p2422
aS'284'
p2423
aF6122.2686000000003
aa(lp2424
S'HCDR3'
p2425
aS'285'
p2426
aF9999999966.6501007
aa(lp2427
S'HCDR3'
p2428
aS'288'
p2429
aF3.8306
aa(lp2430
S'HCDR3'
p2431
aS'289'
p2432
aF6127088.1628
aa(lp2433
S'HV'
p2434
aS'24'
p2435
aF8.9945000000000004
aa(lp2436
S'HCDR3'
p2437
aS'112'
p2438
aF3359081.2058999999
aa(lp2439
S'HCDR3'
p2440
aS'113'
p2441
aF1445.3792000000001
aa(lp2442
S'HCDR3'
p2443
aS'110'
p2444
aF2858.0011
aa(lp2445
S'HCDR3'
p2446
aS'111'
p2447
aF440719506.89999998
aa(lp2448
S'HCDR3'
p2449
aS'116'
p2450
aF0.83809999999999996
aa(lp2451
S'HCDR3'
p2452
aS'117'
p2453
aF396.43420000000003
aa(lp2454
S'HCDR3'
p2455
aS'114'
p2456
aF6.5473999999999997
aa(lp2457
S'HCDR3'
p2458
aS'115'
p2459
aF96979460.141800001
aa(lp2460
S'KCDR3'
p2461
aS'125'
p2462
aF49216.115700000002
aa(lp2463
S'HCDR3'
p2464
aS'118'
p2465
aF13861.284600000001
aa(lp2466
S'HCDR3'
p2467
aS'119'
p2468
aF259287.2499
aa(lp2469
S'HCDR3'
p2470
aS'65'
p2471
aF1.7450000000000001
aa(lp2472
S'HCDR3'
p2473
aS'64'
p2474
aF149.38130000000001
aa(lp2475
S'HCDR3'
p2476
aS'67'
p2477
aF2.1031
aa(lp2478
S'HCDR3'
p2479
aS'66'
p2480
aF-1.8367
aa(lp2481
S'HCDR3'
p2482
aS'61'
p2483
aF0.79589999999999983
aa(lp2484
S'HCDR3'
p2485
aS'60'
p2486
aF-1.2632000000000001
aa(lp2487
S'HCDR3'
p2488
aS'63'
p2489
aF5.4821000000000009
aa(lp2490
S'HCDR3'
p2491
aS'62'
p2492
aF4.4294000000000002
aa(lp2493
S'LV'
p2494
aS'13'
p2495
aF1257.4250000000002
aa(lp2496
S'LV'
p2497
aS'12'
p2498
aF555.23130000000003
aa(lp2499
S'LV'
p2500
aS'11'
p2501
aF597.19870000000003
aa(lp2502
S'LV'
p2503
aS'10'
p2504
aF101.7264
aa(lp2505
S'HCDR3'
p2506
aS'69'
p2507
aF3.7693999999999996
aa(lp2508
S'HCDR3'
p2509
aS'68'
p2510
aF828.66969999999992
aa(lp2511
S'LV'
p2512
aS'15'
p2513
aF840.08159999999998
aa(lp2514
S'LV'
p2515
aS'14'
p2516
aF530033.15630000003
aa(lp2517
S'HCDR3'
p2518
aS'300'
p2519
aF1414287488.9127998
aa(lp2520
S'KJ'
p2521
aS'3'
aF-0.0147
aa(lp2522
S'KV'
p2523
aS'18'
p2524
aF40.179900000000004
aa(lp2525
S'KV'
p2526
aS'19'
p2527
aF-4.2049999999999992
aa(lp2528
S'KV'
p2529
aS'10'
p2530
aF7.8940000000000001
aa(lp2531
S'KV'
p2532
aS'11'
p2533
aF255.3503
aa(lp2534
S'KV'
p2535
aS'12'
p2536
aF235.06059999999999
aa(lp2537
S'KV'
p2538
aS'13'
p2539
aF355.92660000000001
aa(lp2540
S'KV'
p2541
aS'14'
p2542
aF350.35809999999998
aa(lp2543
S'KV'
p2544
aS'15'
p2545
aF377.97879999999998
aa(lp2546
S'KV'
p2547
aS'16'
p2548
aF1101.4680000000001
aa(lp2549
S'KV'
p2550
aS'17'
p2551
aF35.273899999999998
aa(lp2552
S'LV'
p2553
aS'38'
p2554
aF164061.97209999998
aa(lp2555
S'KCDR3'
p2556
aS'39'
p2557
aF6803.0610999999999
aa(lp2558
S'HCDR3'
p2559
aS'239'
p2560
aF-10.0252
aa(lp2561
S'HCDR3'
p2562
aS'238'
p2563
aF176208.3376
aa(lp2564
S'HCDR3'
p2565
aS'237'
p2566
aF138.37209999999999
aa(lp2567
S'HCDR3'
p2568
aS'236'
p2569
aF37.354700000000001
aa(lp2570
S'HCDR3'
p2571
aS'235'
p2572
aF5.9984999999999999
aa(lp2573
S'HCDR3'
p2574
aS'234'
p2575
aF323611.15169999999
aa(lp2576
S'HCDR3'
p2577
aS'233'
p2578
aF2217.5005000000001
aa(lp2579
S'HCDR3'
p2580
aS'232'
p2581
aF-6.9367000000000001
aa(lp2582
S'HCDR3'
p2583
aS'231'
p2584
aF1166386026.7658
aa(lp2585
S'HCDR3'
p2586
aS'230'
p2587
aF-4.9240999999999993
aa(lp2588
S'HCDR3'
p2589
aS'308'
p2590
aF10000000027.362701
aa(lp2591
S'HCDR3'
p2592
aS'10'
p2593
aF-2.27
aa(lp2594
S'HCDR3'
p2595
aS'11'
p2596
aF-5.7088999999999999
aa(lp2597
S'HCDR3'
p2598
aS'12'
p2599
aF-2.6379000000000001
aa(lp2600
S'HCDR3'
p2601
aS'13'
p2602
aF-0.0121
aa(lp2603
S'HCDR3'
p2604
aS'14'
p2605
aF0.49469999999999997
aa(lp2606
S'HCDR3'
p2607
aS'15'
p2608
aF0.3533
aa(lp2609
S'HCDR3'
p2610
aS'16'
p2611
aF-1.7055
aa(lp2612
S'HCDR3'
p2613
aS'17'
p2614
aF1.4857999999999998
aa(lp2615
S'HCDR3'
p2616
aS'18'
p2617
aF-0.35410000000000003
aa(lp2618
S'HCDR3'
p2619
aS'19'
p2620
aF-2.7090999999999998
aa(lp2621
S'KCDR3'
p2622
aS'110'
p2623
aF2645123301.0931997
aa(lp2624
S'HCDR3'
p2625
aS'81'
p2626
aF-5.4360999999999997
aa(lp2627
S'KCDR3'
p2628
aS'199'
p2629
aF2062425.2627999999
aa(lp2630
S'KV'
p2631
aS'65'
p2632
aF3.0476999999999999
aa(lp2633
S'KV'
p2634
aS'64'
p2635
aF265.62030000000004
aa(lp2636
S'KV'
p2637
aS'67'
p2638
aF10000000064.048302
aa(lp2639
S'KV'
p2640
aS'66'
p2641
aF40776.572
aa(lp2642
S'KV'
p2643
aS'61'
p2644
aF14.8055
aa(lp2645
S'KV'
p2646
aS'60'
p2647
aF210.98420000000002
aa(lp2648
S'KV'
p2649
aS'63'
p2650
aF264.08960000000002
aa(lp2651
S'KV'
p2652
aS'62'
p2653
aF41302.356
aa(lp2654
S'LV'
p2655
aS'35'
p2656
aF12.2308
aa(lp2657
S'HCDR3'
p2658
aS'303'
p2659
aF132788856.9578
aa(lp2660
S'HCDR3'
p2661
aS'302'
p2662
aF7369167.7967999997
aa(lp2663
S'HCDR3'
p2664
aS'89'
p2665
aF4.6852
aa(lp2666
S'HCDR3'
p2667
aS'88'
p2668
aF8388.3752999999997
aa(lp2669
S'HCDR3'
p2670
aS'307'
p2671
aF-7.242
aa(lp2672
S'HCDR3'
p2673
aS'306'
p2674
aF396909110.51550001
aa(lp2675
S'HCDR3'
p2676
aS'305'
p2677
aF404057861.4357
aa(lp2678
S'HCDR3'
p2679
aS'304'
p2680
aF9999999719.4632015
aa(lp2681
S'HCDR3'
p2682
aS'83'
p2683
aF64.838800000000006
aa(lp2684
S'HCDR3'
p2685
aS'82'
p2686
aF48622.943100000004
aa(lp2687
S'HCDR3'
p2688
aS'309'
p2689
aF2219132269.0851998
aa(lp2690
S'HCDR3'
p2691
aS'80'
p2692
aF96324496.847200006
aa(lp2693
S'HCDR3'
p2694
aS'87'
p2695
aF1.9303999999999999
aa(lp2696
S'HCDR3'
p2697
aS'86'
p2698
aF1.6852000000000003
aa(lp2699
S'HCDR3'
p2700
aS'85'
p2701
aF7.9299999999999997
aa(lp2702
S'HCDR3'
p2703
aS'84'
p2704
aF-1.7666999999999999
aa.