ccopy_reg
_reconstructor
p1
(cmolecules
ProtoAntibody
p2
c__builtin__
object
p3
NtRp4
(dp5
S'energy'
p6
F51541082.342500001
sS'light_chain'
p7
S'K'
sS'cluster'
p8
NsS'parts'
p9
(dp10
S'KJ'
p11
S'3'
sS'KCDR3'
p12
S'123'
p13
sS'HV'
p14
S'114'
p15
sS'HJ'
p16
S'2'
sS'HCDR3'
p17
S'80'
p18
sS'KV'
p19
S'13'
p20
ssS'coords'
p21
NsS'position'
p22
(F120
F-5
F-5
F15
tp23
sb.