ccopy_reg
_reconstructor
p1
(cmolecules
ProtoAntibody
p2
c__builtin__
object
p3
NtRp4
(dp5
S'energy'
p6
F6189198.2019999996
sS'light_chain'
p7
S'L'
sS'cluster'
p8
NsS'parts'
p9
(dp10
S'HJ'
p11
S'1'
sS'LJ'
p12
S'5'
sS'HV'
p13
S'103'
p14
sS'LV'
p15
S'28'
p16
sS'HCDR3'
p17
S'4'
sS'LCDR3'
p18
S'4'
ssS'coords'
p19
NsS'position'
p20
(F300
F-5
F10
F11.25
tp21
sb.