ccopy_reg
_reconstructor
p1
(cmolecules
ProtoAntibody
p2
c__builtin__
object
p3
NtRp4
(dp5
S'energy'
p6
F-80.329300000000003
sS'light_chain'
p7
S'K'
sS'cluster'
p8
NsS'parts'
p9
(dp10
S'KJ'
p11
S'3'
sS'KCDR3'
p12
S'142'
p13
sS'HV'
p14
S'138'
p15
sS'HJ'
p16
S'1'
sS'HCDR3'
p17
S'255'
p18
sS'KV'
p19
S'4'
ssS'coords'
p20
NsS'position'
p21
(F120
F0
F7.5
F16.25
tp22
sb.