ccopy_reg
_reconstructor
p1
(cmolecules
ProtoAntibody
p2
c__builtin__
object
p3
NtRp4
(dp5
S'energy'
p6
F32772.479999999996
sS'light_chain'
p7
S'K'
sS'cluster'
p8
NsS'parts'
p9
(dp10
S'KJ'
p11
S'1'
sS'KCDR3'
p12
S'114'
p13
sS'HV'
p14
S'46'
p15
sS'HJ'
p16
S'4'
sS'HCDR3'
p17
S'307'
p18
sS'KV'
p19
S'57'
p20
ssS'coords'
p21
NsS'position'
p22
(F240
F-5
F2.5
F16.25
tp23
sb.