ccopy_reg
_reconstructor
p1
(cmolecules
ProtoAntibody
p2
c__builtin__
object
p3
NtRp4
(dp5
S'energy'
p6
F46527300.542200007
sS'light_chain'
p7
S'K'
sS'cluster'
p8
NsS'parts'
p9
(dp10
S'KJ'
p11
S'2'
sS'KCDR3'
p12
S'4'
sS'HV'
p13
S'116'
p14
sS'HJ'
p15
S'1'
sS'HCDR3'
p16
S'4'
sS'KV'
p17
S'54'
p18
ssS'coords'
p19
NsS'position'
p20
(F240
F0
F5
F13.75
tp21
sb.