(lp1
(lp2
S'KCDR3'
p3
aS'84'
p4
aF1295.2672
aa(lp5
S'KCDR3'
p6
aS'85'
p7
aF511.95850000000002
aa(lp8
S'KCDR3'
p9
aS'106'
p10
aF3262.6949999999997
aa(lp11
S'KCDR3'
p12
aS'107'
p13
aF301.28909999999996
aa(lp14
S'KCDR3'
p15
aS'104'
p16
aF952.50870000000009
aa(lp17
S'KCDR3'
p18
aS'105'
p19
aF179323.1256
aa(lp20
S'KCDR3'
p21
aS'102'
p22
aF677.08600000000001
aa(lp23
S'KCDR3'
p24
aS'103'
p25
aF10000000033.797401
aa(lp26
S'KCDR3'
p27
aS'100'
p28
aF1964.3851
aa(lp29
S'KCDR3'
p30
aS'195'
p31
aF248.37049999999999
aa(lp32
S'KCDR3'
p33
aS'88'
p34
aF315796.24719999998
aa(lp35
S'KCDR3'
p36
aS'108'
p37
aF1064230974.0067999
aa(lp38
S'KCDR3'
p39
aS'109'
p40
aF1609171.8370000001
aa(lp41
S'KCDR3'
p42
aS'89'
p43
aF5254.9038999999993
aa(lp44
S'HCDR3'
p45
aS'408'
p46
aF1616512340.0090001
aa(lp47
S'HCDR3'
p48
aS'409'
p49
aF379958794.88029999
aa(lp50
S'HCDR3'
p51
aS'158'
p52
aF-0.87929999999999997
aa(lp53
S'HCDR3'
p54
aS'159'
p55
aF49464743.773899995
aa(lp56
S'HCDR3'
p57
aS'404'
p58
aF9999999782.842701
aa(lp59
S'HCDR3'
p60
aS'405'
p61
aF10000000164.8687
aa(lp62
S'HCDR3'
p63
aS'406'
p64
aF540239900.74889994
aa(lp65
S'HCDR3'
p66
aS'407'
p67
aF252916164.18280002
aa(lp68
S'HCDR3'
p69
aS'400'
p70
aF1203488356.3931999
aa(lp71
S'HCDR3'
p72
aS'153'
p73
aF79762.758099999992
aa(lp74
S'HCDR3'
p75
aS'402'
p76
aF7129982590.7157001
aa(lp77
S'HCDR3'
p78
aS'151'
p79
aF11.968500000000001
aa(lp80
S'HV'
p81
aS'31'
p82
aF-10.1966
aa(lp83
S'HV'
p84
aS'30'
p85
aF-8.2089999999999996
aa(lp86
S'HV'
p87
aS'33'
p88
aF-3.7624000000000004
aa(lp89
S'HV'
p90
aS'32'
p91
aF-9.2042000000000002
aa(lp92
S'HV'
p93
aS'35'
p94
aF-2.9717000000000002
aa(lp95
S'HV'
p96
aS'34'
p97
aF-2.6543999999999999
aa(lp98
S'HV'
p99
aS'37'
p100
aF-1.1295999999999999
aa(lp101
S'HV'
p102
aS'36'
p103
aF-1.1759999999999997
aa(lp104
S'HV'
p105
aS'39'
p106
aF50.436599999999999
aa(lp107
S'HV'
p108
aS'38'
p109
aF-0.15089999999999981
aa(lp110
S'HCDR3'
p111
aS'396'
p112
aF1385801.2106999999
aa(lp113
S'HCDR3'
p114
aS'397'
p115
aF10000000001.3738
aa(lp116
S'HCDR3'
p117
aS'390'
p118
aF10000000057.2721
aa(lp119
S'HCDR3'
p120
aS'391'
p121
aF9999999986.7504005
aa(lp122
S'HCDR3'
p123
aS'392'
p124
aF9999999877.4709015
aa(lp125
S'HCDR3'
p126
aS'393'
p127
aF10000000321.411901
aa(lp128
S'KCDR3'
p129
aS'197'
p130
aF31693132.425099999
aa(lp131
S'HCDR3'
p132
aS'279'
p133
aF-4.9497999999999998
aa(lp134
S'HCDR3'
p135
aS'278'
p136
aF-14.752800000000001
aa(lp137
S'HCDR3'
p138
aS'273'
p139
aF1669708249.7718
aa(lp140
S'HCDR3'
p141
aS'272'
p142
aF10000000159.484301
aa(lp143
S'HCDR3'
p144
aS'271'
p145
aF853.96089999999992
aa(lp146
S'HCDR3'
p147
aS'270'
p148
aF-4.8548
aa(lp149
S'HCDR3'
p150
aS'277'
p151
aF149.5232
aa(lp152
S'HCDR3'
p153
aS'276'
p154
aF2955.0314000000003
aa(lp155
S'HCDR3'
p156
aS'275'
p157
aF99.036299999999997
aa(lp158
S'HCDR3'
p159
aS'274'
p160
aF-3.5189000000000004
aa(lp161
S'KCDR3'
p162
aS'196'
p163
aF275608.20050000004
aa(lp164
S'LV'
p165
aS'33'
p166
aF-21.519500000000001
aa(lp167
S'LCDR3'
p168
aS'17'
p169
aF6966.7914000000001
aa(lp170
S'HCDR3'
p171
aS'58'
p172
aF-0.050099999999999999
aa(lp173
S'HCDR3'
p174
aS'30'
p175
aF-0.16830000000000001
aa(lp176
S'HCDR3'
p177
aS'54'
p178
aF-3.2732000000000001
aa(lp179
S'HCDR3'
p180
aS'55'
p181
aF-2.2254
aa(lp182
S'HCDR3'
p183
aS'56'
p184
aF0.8095
aa(lp185
S'HCDR3'
p186
aS'57'
p187
aF-0.31299999999999994
aa(lp188
S'HCDR3'
p189
aS'50'
p190
aF-0.29649999999999999
aa(lp191
S'HCDR3'
p192
aS'51'
p193
aF0.58899999999999997
aa(lp194
S'HCDR3'
p195
aS'52'
p196
aF1.1234999999999999
aa(lp197
S'HCDR3'
p198
aS'53'
p199
aF0.026500000000000003
aa(lp200
S'HV'
p201
aS'108'
p202
aF1.8588999999999998
aa(lp203
S'HV'
p204
aS'109'
p205
aF1.5968
aa(lp206
S'HV'
p207
aS'100'
p208
aF2.2042999999999999
aa(lp209
S'HV'
p210
aS'101'
p211
aF2.2692000000000001
aa(lp212
S'HV'
p213
aS'102'
p214
aF3.0684999999999993
aa(lp215
S'HV'
p216
aS'103'
p217
aF1.9543999999999999
aa(lp218
S'HV'
p219
aS'104'
p220
aF2.1177000000000001
aa(lp221
S'HV'
p222
aS'105'
p223
aF2.1273
aa(lp224
S'HV'
p225
aS'106'
p226
aF1.7856999999999998
aa(lp227
S'HV'
p228
aS'107'
p229
aF1.8744999999999998
aa(lp230
S'KV'
p231
aS'21'
p232
aF0.74689999999999968
aa(lp233
S'KV'
p234
aS'20'
p235
aF1.4098999999999999
aa(lp236
S'KV'
p237
aS'23'
p238
aF0.090599999999999792
aa(lp239
S'KV'
p240
aS'22'
p241
aF0.76790000000000003
aa(lp242
S'KV'
p243
aS'25'
p244
aF0.18310000000000004
aa(lp245
S'HCDR3'
p246
aS'49'
p247
aF-0.25990000000000002
aa(lp248
S'KV'
p249
aS'27'
p250
aF-0.96840000000000015
aa(lp251
S'KV'
p252
aS'29'
p253
aF-0.28309999999999969
aa(lp254
S'KV'
p255
aS'28'
p256
aF0.66700000000000026
aa(lp257
S'HV'
p258
aS'110'
p259
aF1.9655999999999998
aa(lp260
S'KCDR3'
p261
aS'190'
p262
aF29696.822100000001
aa(lp263
S'KCDR3'
p264
aS'51'
p265
aF17.138600000000004
aa(lp266
S'KCDR3'
p267
aS'50'
p268
aF-6.6921000000000008
aa(lp269
S'KCDR3'
p270
aS'53'
p271
aF34.871200000000002
aa(lp272
S'KCDR3'
p273
aS'52'
p274
aF-17.351600000000001
aa(lp275
S'KCDR3'
p276
aS'55'
p277
aF3.6774000000000022
aa(lp278
S'HCDR3'
p279
aS'38'
p280
aF2.0206
aa(lp281
S'KCDR3'
p282
aS'57'
p283
aF2.4810000000000003
aa(lp284
S'KCDR3'
p285
aS'56'
p286
aF-1.6101000000000001
aa(lp287
S'KCDR3'
p288
aS'59'
p289
aF1.1075999999999997
aa(lp290
S'KCDR3'
p291
aS'58'
p292
aF1.5092999999999999
aa(lp293
S'HCDR3'
p294
aS'39'
p295
aF1.6188
aa(lp296
S'LV'
p297
aS'37'
p298
aF0.7341000000000002
aa(lp299
S'LCDR3'
p300
aS'11'
p301
aF4.0644999999999998
aa(lp302
S'KCDR3'
p303
aS'54'
p304
aF127.00230000000001
aa(lp305
S'LV'
p306
aS'36'
p307
aF-5.2217000000000002
aa(lp308
S'LV'
p309
aS'31'
p310
aF-4.5537000000000001
aa(lp311
S'KCDR3'
p312
aS'193'
p313
aF148407015.2877
aa(lp314
S'LCDR3'
p315
aS'27'
p316
aF35.968299999999999
aa(lp317
S'LV'
p318
aS'30'
p319
aF-5.0570000000000004
aa(lp320
S'HCDR3'
p321
aS'41'
p322
aF1.6448999999999998
aa(lp323
S'HCDR3'
p324
aS'40'
p325
aF2.028
aa(lp326
S'KCDR3'
p327
aS'192'
p328
aF-7.6517000000000008
aa(lp329
S'HCDR3'
p330
aS'156'
p331
aF-0.90169999999999995
aa(lp332
S'HCDR3'
p333
aS'157'
p334
aF25163970.7896
aa(lp335
S'KCDR3'
p336
aS'65'
p337
aF231.00550000000001
aa(lp338
S'HCDR3'
p339
aS'154'
p340
aF-0.93909999999999993
aa(lp341
S'HCDR3'
p342
aS'155'
p343
aF-4.9869000000000003
aa(lp344
S'HV'
p345
aS'68'
p346
aF-0.10839999999999983
aa(lp347
S'HV'
p348
aS'69'
p349
aF-0.031300000000000106
aa(lp350
S'HV'
p351
aS'66'
p352
aF-0.064099999999999824
aa(lp353
S'HV'
p354
aS'67'
p355
aF0.32699999999999996
aa(lp356
S'HV'
p357
aS'64'
p358
aF-1.5820000000000001
aa(lp359
S'HV'
p360
aS'65'
p361
aF1.6700999999999999
aa(lp362
S'HV'
p363
aS'62'
p364
aF-0.31869999999999998
aa(lp365
S'HV'
p366
aS'63'
p367
aF-1.5817000000000001
aa(lp368
S'HV'
p369
aS'60'
p370
aF5.4770000000000003
aa(lp371
S'HV'
p372
aS'61'
p373
aF-3.4885999999999999
aa(lp374
S'HCDR3'
p375
aS'150'
p376
aF-2.4811000000000001
aa(lp377
S'HCDR3'
p378
aS'403'
p379
aF10000000046.859501
aa(lp380
S'HCDR3'
p381
aS'358'
p382
aF9999999966.5932999
aa(lp383
S'HCDR3'
p384
aS'359'
p385
aF195956760.92270002
aa(lp386
S'HCDR3'
p387
aS'350'
p388
aF-1.3866000000000001
aa(lp389
S'HCDR3'
p390
aS'351'
p391
aF-1.1917
aa(lp392
S'HCDR3'
p393
aS'352'
p394
aF6005824108.7952003
aa(lp395
S'HCDR3'
p396
aS'353'
p397
aF776628.31770000001
aa(lp398
S'HCDR3'
p399
aS'354'
p400
aF9999999946.9975014
aa(lp401
S'HCDR3'
p402
aS'355'
p403
aF148151665.76710001
aa(lp404
S'HCDR3'
p405
aS'356'
p406
aF9341.5015000000003
aa(lp407
S'HCDR3'
p408
aS'357'
p409
aF9999999970.2538013
aa(lp410
S'KCDR3'
p411
aS'78'
p412
aF316.2835
aa(lp413
S'HCDR3'
p414
aS'398'
p415
aF10000000006.4967
aa(lp416
S'HCDR3'
p417
aS'399'
p418
aF7777870345.7340002
aa(lp419
S'HJ'
p420
aS'5'
aF0
aa(lp421
S'HJ'
p422
aS'4'
aF0
aa(lp423
S'HJ'
p424
aS'3'
aF0
aa(lp425
S'HJ'
p426
aS'2'
aF0
aa(lp427
S'HJ'
p428
aS'1'
aF0
aa(lp429
S'LJ'
p430
aS'6'
aF0
aa(lp431
S'KCDR3'
p432
aS'82'
p433
aF1297.1705000000002
aa(lp434
S'HCDR3'
p435
aS'394'
p436
aF10000000044.797602
aa(lp437
S'KCDR3'
p438
aS'80'
p439
aF-5.2407000000000004
aa(lp440
S'KCDR3'
p441
aS'81'
p442
aF2970844.4533000002
aa(lp443
S'KCDR3'
p444
aS'86'
p445
aF29615.437900000001
aa(lp446
S'KCDR3'
p447
aS'87'
p448
aF27451.878500000003
aa(lp449
S'KCDR3'
p450
aS'179'
p451
aF5.6415000000000006
aa(lp452
S'HCDR3'
p453
aS'395'
p454
aF10000000048.350401
aa(lp455
S'KCDR3'
p456
aS'191'
p457
aF2.4515000000000002
aa(lp458
S'KCDR3'
p459
aS'176'
p460
aF3302.1763999999998
aa(lp461
S'KCDR3'
p462
aS'175'
p463
aF838.58950000000004
aa(lp464
S'KCDR3'
p465
aS'174'
p466
aF1048.7533000000001
aa(lp467
S'KCDR3'
p468
aS'173'
p469
aF2482.8741999999997
aa(lp470
S'KCDR3'
p471
aS'172'
p472
aF2422.5736999999999
aa(lp473
S'KCDR3'
p474
aS'171'
p475
aF6384.6111000000001
aa(lp476
S'KCDR3'
p477
aS'170'
p478
aF5266.1583000000001
aa(lp479
S'KCDR3'
p480
aS'70'
p481
aF1962.4077
aa(lp482
S'KCDR3'
p483
aS'77'
p484
aF1680379.4350000001
aa(lp485
S'KCDR3'
p486
aS'76'
p487
aF516544.19449999998
aa(lp488
S'HCDR3'
p489
aS'127'
p490
aF5.7865000000000002
aa(lp491
S'HCDR3'
p492
aS'126'
p493
aF1705.5241999999998
aa(lp494
S'HCDR3'
p495
aS'125'
p496
aF-0.13610000000000011
aa(lp497
S'HCDR3'
p498
aS'124'
p499
aF-7.6194000000000006
aa(lp500
S'HCDR3'
p501
aS'123'
p502
aF-2.1822999999999997
aa(lp503
S'HCDR3'
p504
aS'122'
p505
aF-1.2730999999999999
aa(lp506
S'HCDR3'
p507
aS'121'
p508
aF-5.8000000000000007
aa(lp509
S'HCDR3'
p510
aS'120'
p511
aF-0.6342000000000001
aa(lp512
S'KCDR3'
p513
aS'74'
p514
aF2461611639.4818997
aa(lp515
S'HCDR3'
p516
aS'425'
p517
aF6040299448.9612999
aa(lp518
S'HCDR3'
p519
aS'129'
p520
aF2.1175000000000002
aa(lp521
S'HCDR3'
p522
aS'128'
p523
aF-2.9708999999999999
aa(lp524
S'HCDR3'
p525
aS'301'
p526
aF-25.2332
aa(lp527
S'HV'
p528
aS'140'
p529
aF-0.66749999999999998
aa(lp530
S'HV'
p531
aS'141'
p532
aF-0.74469999999999992
aa(lp533
S'KCDR3'
p534
aS'24'
p535
aF3.3177999999999996
aa(lp536
S'HV'
p537
aS'9'
aF-0.38200000000000001
aa(lp538
S'HV'
p539
aS'8'
aF860264972.3441
aa(lp540
S'KCDR3'
p541
aS'19'
p542
aF-1.1279999999999999
aa(lp543
S'KCDR3'
p544
aS'18'
p545
aF205956457.12780002
aa(lp546
S'KCDR3'
p547
aS'25'
p548
aF42.720799999999997
aa(lp549
S'HV'
p550
aS'3'
aF0.70219999999999994
aa(lp551
S'HV'
p552
aS'2'
aF0.54880000000000007
aa(lp553
S'HV'
p554
aS'1'
aF0.54720000000000002
aa(lp555
S'KCDR3'
p556
aS'16'
p557
aF167091.23670000001
aa(lp558
S'HV'
p559
aS'7'
aF0.56770000000000009
aa(lp560
S'HV'
p561
aS'6'
aF-0.6503000000000001
aa(lp562
S'HV'
p563
aS'5'
aF-0.60629999999999995
aa(lp564
S'HV'
p565
aS'4'
aF-0.74199999999999999
aa(lp566
S'HCDR3'
p567
aS'220'
p568
aF4.7619000000000007
aa(lp569
S'HCDR3'
p570
aS'221'
p571
aF3.8985000000000003
aa(lp572
S'HCDR3'
p573
aS'222'
p574
aF15986.0026
aa(lp575
S'HCDR3'
p576
aS'223'
p577
aF-2.3828
aa(lp578
S'HCDR3'
p579
aS'224'
p580
aF-0.15870000000000006
aa(lp581
S'HCDR3'
p582
aS'225'
p583
aF-8.9549000000000003
aa(lp584
S'HCDR3'
p585
aS'226'
p586
aF-4.4992999999999999
aa(lp587
S'HCDR3'
p588
aS'227'
p589
aF110038.7288
aa(lp590
S'HCDR3'
p591
aS'228'
p592
aF-10.451000000000001
aa(lp593
S'HCDR3'
p594
aS'229'
p595
aF-6.0754000000000001
aa(lp596
S'KCDR3'
p597
aS'83'
p598
aF9503.4652999999998
aa(lp599
S'LCDR3'
p600
aS'32'
p601
aF254.30779999999999
aa(lp602
S'LCDR3'
p603
aS'33'
p604
aF22021.594499999999
aa(lp605
S'LCDR3'
p606
aS'30'
p607
aF-0.17110000000000003
aa(lp608
S'LCDR3'
p609
aS'31'
p610
aF-0.76180000000000003
aa(lp611
S'LCDR3'
p612
aS'36'
p613
aF-31.1905
aa(lp614
S'LV'
p615
aS'9'
aF144.6097
aa(lp616
S'LCDR3'
p617
aS'34'
p618
aF8.2073999999999998
aa(lp619
S'LCDR3'
p620
aS'35'
p621
aF-10.5671
aa(lp622
S'KCDR3'
p623
aS'28'
p624
aF280420.8383
aa(lp625
S'LCDR3'
p626
aS'38'
p627
aF4.2168000000000001
aa(lp628
S'LV'
p629
aS'8'
aF145.37079999999997
aa(lp630
S'KCDR3'
p631
aS'29'
p632
aF769.73159999999996
aa(lp633
S'KCDR3'
p634
aS'68'
p635
aF7235912363.9419994
aa(lp636
S'HCDR3'
p637
aS'90'
p638
aF-2.8687999999999998
aa(lp639
S'HCDR3'
p640
aS'91'
p641
aF9999999998.5442009
aa(lp642
S'KCDR3'
p643
aS'60'
p644
aF-38.8718
aa(lp645
S'KCDR3'
p646
aS'61'
p647
aF-30.575200000000002
aa(lp648
S'KCDR3'
p649
aS'62'
p650
aF649.87030000000004
aa(lp651
S'KCDR3'
p652
aS'63'
p653
aF55515.758900000001
aa(lp654
S'KCDR3'
p655
aS'64'
p656
aF4019.9890999999998
aa(lp657
S'HCDR3'
p658
aS'92'
p659
aF-0.59509999999999996
aa(lp660
S'KCDR3'
p661
aS'66'
p662
aF125442692.5017
aa(lp663
S'KCDR3'
p664
aS'67'
p665
aF9188608.9989
aa(lp666
S'HCDR3'
p667
aS'93'
p668
aF1.8527000000000005
aa(lp669
S'HCDR3'
p670
aS'332'
p671
aF375502.48869999999
aa(lp672
S'HCDR3'
p673
aS'333'
p674
aF108020.7534
aa(lp675
S'LCDR3'
p676
aS'8'
aF3703706924.0829
aa(lp677
S'LCDR3'
p678
aS'9'
aF-0.8153999999999999
aa(lp679
S'HCDR3'
p680
aS'330'
p681
aF10000000094.7325
aa(lp682
S'LCDR3'
p683
aS'2'
aF367703.33419999998
aa(lp684
S'LCDR3'
p685
aS'3'
aF-1.8710999999999998
aa(lp686
S'HCDR3'
p687
aS'97'
p688
aF2.5434999999999999
aa(lp689
S'LCDR3'
p690
aS'6'
aF-2.6790000000000003
aa(lp691
S'LCDR3'
p692
aS'7'
aF126453.18419999999
aa(lp693
S'LCDR3'
p694
aS'4'
aF219.3484
aa(lp695
S'LCDR3'
p696
aS'5'
aF-11.378
aa(lp697
S'HCDR3'
p698
aS'314'
p699
aF10000000051.655602
aa(lp700
S'HCDR3'
p701
aS'315'
p702
aF-7.7835000000000001
aa(lp703
S'HCDR3'
p704
aS'316'
p705
aF9999999732.2217007
aa(lp706
S'HCDR3'
p707
aS'317'
p708
aF20258.620699999999
aa(lp709
S'HCDR3'
p710
aS'310'
p711
aF1158470959.6142001
aa(lp712
S'HCDR3'
p713
aS'311'
p714
aF0.35580000000000012
aa(lp715
S'HCDR3'
p716
aS'312'
p717
aF-15.2402
aa(lp718
S'HCDR3'
p719
aS'313'
p720
aF19.8018
aa(lp721
S'KCDR3'
p722
aS'198'
p723
aF66598.123599999992
aa(lp724
S'HCDR3'
p725
aS'318'
p726
aF135110.84480000002
aa(lp727
S'HCDR3'
p728
aS'319'
p729
aF695.72430000000008
aa(lp730
S'LV'
p731
aS'19'
p732
aF-3.1687999999999996
aa(lp733
S'HV'
p734
aS'97'
p735
aF4.3573000000000004
aa(lp736
S'HV'
p737
aS'96'
p738
aF0.90360000000000007
aa(lp739
S'HV'
p740
aS'95'
p741
aF-0.067100000000000048
aa(lp742
S'HV'
p743
aS'94'
p744
aF0.93190000000000006
aa(lp745
S'HV'
p746
aS'93'
p747
aF-1.2428999999999999
aa(lp748
S'HV'
p749
aS'92'
p750
aF0.83309999999999973
aa(lp751
S'HV'
p752
aS'91'
p753
aF1.0276000000000001
aa(lp754
S'HV'
p755
aS'90'
p756
aF1.0637999999999999
aa(lp757
S'KCDR3'
p758
aS'133'
p759
aF-1.3790999999999998
aa(lp760
S'KCDR3'
p761
aS'132'
p762
aF70.074100000000001
aa(lp763
S'KCDR3'
p764
aS'131'
p765
aF845.84299999999996
aa(lp766
S'KCDR3'
p767
aS'130'
p768
aF314575.9215
aa(lp769
S'KCDR3'
p770
aS'137'
p771
aF236622.04639999999
aa(lp772
S'KCDR3'
p773
aS'136'
p774
aF-9.2828999999999997
aa(lp775
S'HV'
p776
aS'99'
p777
aF2.7439999999999998
aa(lp778
S'HV'
p779
aS'98'
p780
aF4.1814
aa(lp781
S'HCDR3'
p782
aS'31'
p783
aF-0.49020000000000002
aa(lp784
S'KCDR3'
p785
aS'134'
p786
aF9.4468999999999994
aa(lp787
S'HCDR3'
p788
aS'163'
p789
aF47480890.643199995
aa(lp790
S'HCDR3'
p791
aS'162'
p792
aF178.26509999999999
aa(lp793
S'HCDR3'
p794
aS'161'
p795
aF-3.1911
aa(lp796
S'HCDR3'
p797
aS'160'
p798
aF1.1205000000000001
aa(lp799
S'HCDR3'
p800
aS'167'
p801
aF1.351
aa(lp802
S'HCDR3'
p803
aS'166'
p804
aF494454.1974
aa(lp805
S'HCDR3'
p806
aS'165'
p807
aF48883027.455399998
aa(lp808
S'HCDR3'
p809
aS'164'
p810
aF77.894400000000005
aa(lp811
S'HCDR3'
p812
aS'169'
p813
aF-9.9606999999999992
aa(lp814
S'HCDR3'
p815
aS'168'
p816
aF13.2927
aa(lp817
S'HV'
p818
aS'22'
p819
aF-1.927
aa(lp820
S'HV'
p821
aS'23'
p822
aF-1.7532000000000001
aa(lp823
S'HV'
p824
aS'20'
p825
aF0.42579999999999996
aa(lp826
S'HV'
p827
aS'21'
p828
aF-0.89409999999999989
aa(lp829
S'HV'
p830
aS'26'
p831
aF-7.782
aa(lp832
S'HV'
p833
aS'27'
p834
aF-7.8213999999999997
aa(lp835
S'HCDR3'
p836
aS'367'
p837
aF15924230.0405
aa(lp838
S'HV'
p839
aS'25'
p840
aF-15.7752
aa(lp841
S'HCDR3'
p842
aS'369'
p843
aF38603025.804799996
aa(lp844
S'HCDR3'
p845
aS'368'
p846
aF-17.462800000000001
aa(lp847
S'HV'
p848
aS'28'
p849
aF-9.0683000000000007
aa(lp850
S'HV'
p851
aS'29'
p852
aF-8.9764999999999997
aa(lp853
S'KCDR3'
p854
aS'182'
p855
aF123.6165
aa(lp856
S'KCDR3'
p857
aS'183'
p858
aF4581901.8037999999
aa(lp859
S'KCDR3'
p860
aS'180'
p861
aF698.04559999999992
aa(lp862
S'KCDR3'
p863
aS'181'
p864
aF842.51859999999999
aa(lp865
S'HCDR3'
p866
aS'189'
p867
aF10.8405
aa(lp868
S'HCDR3'
p869
aS'188'
p870
aF6702.4713000000002
aa(lp871
S'HCDR3'
p872
aS'181'
p873
aF20.962400000000002
aa(lp874
S'HCDR3'
p875
aS'180'
p876
aF8675.6687000000002
aa(lp877
S'HCDR3'
p878
aS'183'
p879
aF2.2093000000000003
aa(lp880
S'HCDR3'
p881
aS'182'
p882
aF20467.072800000002
aa(lp883
S'HCDR3'
p884
aS'185'
p885
aF-7.4405000000000001
aa(lp886
S'HCDR3'
p887
aS'184'
p888
aF3.1626000000000003
aa(lp889
S'HCDR3'
p890
aS'187'
p891
aF0.1946
aa(lp892
S'HCDR3'
p893
aS'186'
p894
aF-28.586400000000001
aa(lp895
S'HCDR3'
p896
aS'268'
p897
aF1.0444
aa(lp898
S'HCDR3'
p899
aS'269'
p900
aF37942.143100000001
aa(lp901
S'HCDR3'
p902
aS'264'
p903
aF6.4997999999999996
aa(lp904
S'HCDR3'
p905
aS'265'
p906
aF-1.9028999999999998
aa(lp907
S'HCDR3'
p908
aS'266'
p909
aF4631.1633000000002
aa(lp910
S'HCDR3'
p911
aS'267'
p912
aF-1.6161000000000003
aa(lp913
S'HCDR3'
p914
aS'260'
p915
aF2481.0196999999998
aa(lp916
S'HCDR3'
p917
aS'261'
p918
aF-4.3208000000000002
aa(lp919
S'HCDR3'
p920
aS'262'
p921
aF5021390013.0376005
aa(lp922
S'HCDR3'
p923
aS'263'
p924
aF-11.088899999999999
aa(lp925
S'LV'
p926
aS'34'
p927
aF-20.879099999999998
aa(lp928
S'HCDR3'
p929
aS'366'
p930
aF9999999938.7829018
aa(lp931
S'HV'
p932
aS'117'
p933
aF-1.2319
aa(lp934
S'HV'
p935
aS'116'
p936
aF-2.0230999999999999
aa(lp937
S'HV'
p938
aS'115'
p939
aF-0.0250999999999999
aa(lp940
S'HV'
p941
aS'114'
p942
aF3.069
aa(lp943
S'HV'
p944
aS'113'
p945
aF3.0072000000000001
aa(lp946
S'HV'
p947
aS'112'
p948
aF2.4419
aa(lp949
S'HV'
p950
aS'111'
p951
aF3.0173999999999999
aa(lp952
S'HCDR3'
p953
aS'48'
p954
aF-0.19950000000000001
aa(lp955
S'HCDR3'
p956
aS'47'
p957
aF0.19819999999999993
aa(lp958
S'HCDR3'
p959
aS'46'
p960
aF0.18269999999999997
aa(lp961
S'HCDR3'
p962
aS'45'
p963
aF6.8398000000000003
aa(lp964
S'HCDR3'
p965
aS'44'
p966
aF-0.16000000000000014
aa(lp967
S'HCDR3'
p968
aS'43'
p969
aF0.62979999999999992
aa(lp970
S'HCDR3'
p971
aS'42'
p972
aF0.56850000000000001
aa(lp973
S'HV'
p974
aS'119'
p975
aF-0.69719999999999993
aa(lp976
S'HV'
p977
aS'118'
p978
aF-0.79259999999999997
aa(lp979
S'KV'
p980
aS'32'
p981
aF4.5796000000000001
aa(lp982
S'KV'
p983
aS'33'
p984
aF6.9841000000000006
aa(lp985
S'KV'
p986
aS'30'
p987
aF0.38669999999999982
aa(lp988
S'KV'
p989
aS'31'
p990
aF-4.9833999999999996
aa(lp991
S'KV'
p992
aS'36'
p993
aF0.59209999999999985
aa(lp994
S'KV'
p995
aS'37'
p996
aF2.9371999999999998
aa(lp997
S'KV'
p998
aS'34'
p999
aF3.5702999999999996
aa(lp1000
S'KV'
p1001
aS'35'
p1002
aF-1.2117000000000004
aa(lp1003
S'KV'
p1004
aS'38'
p1005
aF576910443.19209993
aa(lp1006
S'KV'
p1007
aS'39'
p1008
aF10000000068.434502
aa(lp1009
S'KCDR3'
p1010
aS'117'
p1011
aF3.9291999999999998
aa(lp1012
S'HCDR3'
p1013
aS'219'
p1014
aF-0.79460000000000008
aa(lp1015
S'HCDR3'
p1016
aS'218'
p1017
aF7463.5519000000004
aa(lp1018
S'KCDR3'
p1019
aS'26'
p1020
aF4100.5911000000006
aa(lp1021
S'KCDR3'
p1022
aS'116'
p1023
aF3.6642000000000001
aa(lp1024
S'KCDR3'
p1025
aS'20'
p1026
aF14424.495199999999
aa(lp1027
S'KCDR3'
p1028
aS'21'
p1029
aF934.38960000000009
aa(lp1030
S'KCDR3'
p1031
aS'22'
p1032
aF-2.1414999999999997
aa(lp1033
S'KCDR3'
p1034
aS'23'
p1035
aF1.8653000000000002
aa(lp1036
S'HCDR3'
p1037
aS'211'
p1038
aF653937.79940000002
aa(lp1039
S'HCDR3'
p1040
aS'210'
p1041
aF-17.266199999999998
aa(lp1042
S'HCDR3'
p1043
aS'213'
p1044
aF0.45829999999999993
aa(lp1045
S'HCDR3'
p1046
aS'212'
p1047
aF-0.75910000000000011
aa(lp1048
S'HCDR3'
p1049
aS'215'
p1050
aF-4.1081000000000003
aa(lp1051
S'HCDR3'
p1052
aS'214'
p1053
aF1270464546.8020999
aa(lp1054
S'HCDR3'
p1055
aS'217'
p1056
aF-1.8483000000000001
aa(lp1057
S'HCDR3'
p1058
aS'216'
p1059
aF-6.2015000000000002
aa(lp1060
S'KCDR3'
p1061
aS'92'
p1062
aF755.09350000000006
aa(lp1063
S'KCDR3'
p1064
aS'128'
p1065
aF10000000317.508801
aa(lp1066
S'HCDR3'
p1067
aS'59'
p1068
aF0.21149999999999999
aa(lp1069
S'KCDR3'
p1070
aS'119'
p1071
aF216407.05379999999
aa(lp1072
S'KCDR3'
p1073
aS'118'
p1074
aF2.8283
aa(lp1075
S'KCDR3'
p1076
aS'124'
p1077
aF9775.5133000000005
aa(lp1078
S'HCDR3'
p1079
aS'8'
aF0.036799999999999999
aa(lp1080
S'HCDR3'
p1081
aS'9'
aF0.6028
aa(lp1082
S'HCDR3'
p1083
aS'6'
aF0.21110000000000001
aa(lp1084
S'HCDR3'
p1085
aS'7'
aF0.080199999999999994
aa(lp1086
S'HCDR3'
p1087
aS'4'
aF0.014500000000000001
aa(lp1088
S'HCDR3'
p1089
aS'5'
aF0.11739999999999999
aa(lp1090
S'HCDR3'
p1091
aS'2'
aF-0.078
aa(lp1092
S'HCDR3'
p1093
aS'3'
aF-0.040099999999999997
aa(lp1094
S'HCDR3'
p1095
aS'1'
aF-0.00089999999999999976
aa(lp1096
S'KCDR3'
p1097
aS'1'
aF1.3619999999999999
aa(lp1098
S'HV'
p1099
aS'59'
p1100
aF5.4851000000000001
aa(lp1101
S'HV'
p1102
aS'58'
p1103
aF0.94190000000000018
aa(lp1104
S'KCDR3'
p1105
aS'5'
aF10000000031.2306
aa(lp1106
S'KCDR3'
p1107
aS'4'
aF38146.165199999996
aa(lp1108
S'KCDR3'
p1109
aS'7'
aF-11.956800000000001
aa(lp1110
S'KCDR3'
p1111
aS'6'
aF27.395899999999997
aa(lp1112
S'HV'
p1113
aS'53'
p1114
aF0.29579999999999995
aa(lp1115
S'HV'
p1116
aS'52'
p1117
aF0.30420000000000003
aa(lp1118
S'HV'
p1119
aS'51'
p1120
aF-0.99009999999999998
aa(lp1121
S'HV'
p1122
aS'50'
p1123
aF-1.6261000000000001
aa(lp1124
S'HV'
p1125
aS'57'
p1126
aF-1.7502
aa(lp1127
S'HV'
p1128
aS'56'
p1129
aF-1.9847000000000001
aa(lp1130
S'HV'
p1131
aS'55'
p1132
aF0.1618
aa(lp1133
S'HV'
p1134
aS'54'
p1135
aF-1.4528000000000001
aa(lp1136
S'LCDR3'
p1137
aS'37'
p1138
aF-42.337900000000005
aa(lp1139
S'HCDR3'
p1140
aS'329'
p1141
aF17594413.989
aa(lp1142
S'HCDR3'
p1143
aS'328'
p1144
aF2404979.8198000002
aa(lp1145
S'HCDR3'
p1146
aS'325'
p1147
aF7835744.3722000001
aa(lp1148
S'HCDR3'
p1149
aS'324'
p1150
aF41681.279999999999
aa(lp1151
S'HCDR3'
p1152
aS'327'
p1153
aF78697753.030900002
aa(lp1154
S'HCDR3'
p1155
aS'326'
p1156
aF10000000021.351301
aa(lp1157
S'HCDR3'
p1158
aS'321'
p1159
aF2.6353999999999997
aa(lp1160
S'HCDR3'
p1161
aS'320'
p1162
aF9999999978.1541004
aa(lp1163
S'HCDR3'
p1164
aS'323'
p1165
aF42495.712399999997
aa(lp1166
S'HCDR3'
p1167
aS'322'
p1168
aF314008345.43970001
aa(lp1169
S'HCDR3'
p1170
aS'145'
p1171
aF-3.6555999999999997
aa(lp1172
S'HCDR3'
p1173
aS'144'
p1174
aF8438987.4857000001
aa(lp1175
S'HCDR3'
p1176
aS'147'
p1177
aF-3.1767000000000003
aa(lp1178
S'HCDR3'
p1179
aS'146'
p1180
aF-6.3314000000000004
aa(lp1181
S'HCDR3'
p1182
aS'417'
p1183
aF10000000003.357302
aa(lp1184
S'KCDR3'
p1185
aS'35'
p1186
aF6.6266999999999996
aa(lp1187
S'KCDR3'
p1188
aS'3'
aF2.0966000000000005
aa(lp1189
S'HCDR3'
p1190
aS'140'
p1191
aF4.1593
aa(lp1192
S'KCDR3'
p1193
aS'160'
p1194
aF26.616600000000002
aa(lp1195
S'KCDR3'
p1196
aS'161'
p1197
aF87.846000000000004
aa(lp1198
S'KCDR3'
p1199
aS'162'
p1200
aF40.438400000000001
aa(lp1201
S'KCDR3'
p1202
aS'96'
p1203
aF506.59800000000001
aa(lp1204
S'KCDR3'
p1205
aS'164'
p1206
aF76.885099999999994
aa(lp1207
S'HCDR3'
p1208
aS'415'
p1209
aF10000000293.277901
aa(lp1210
S'KCDR3'
p1211
aS'93'
p1212
aF89922.850999999995
aa(lp1213
S'KCDR3'
p1214
aS'167'
p1215
aF1561753576.1796999
aa(lp1216
S'KCDR3'
p1217
aS'168'
p1218
aF8015239.1067999993
aa(lp1219
S'KCDR3'
p1220
aS'169'
p1221
aF1541296.3160000001
aa(lp1222
S'HCDR3'
p1223
aS'414'
p1224
aF9999999847.9652004
aa(lp1225
S'KCDR3'
p1226
aS'99'
p1227
aF136.7602
aa(lp1228
S'KCDR3'
p1229
aS'98'
p1230
aF5.0063999999999993
aa(lp1231
S'HCDR3'
p1232
aS'138'
p1233
aF28413.819599999999
aa(lp1234
S'HCDR3'
p1235
aS'139'
p1236
aF-1.2216
aa(lp1237
S'KCDR3'
p1238
aS'69'
p1239
aF55653710.742400005
aa(lp1240
S'HCDR3'
p1241
aS'130'
p1242
aF-0.58190000000000008
aa(lp1243
S'HCDR3'
p1244
aS'131'
p1245
aF-3.8856999999999999
aa(lp1246
S'HCDR3'
p1247
aS'132'
p1248
aF-2.1259000000000001
aa(lp1249
S'HCDR3'
p1250
aS'133'
p1251
aF-6.4925999999999995
aa(lp1252
S'HCDR3'
p1253
aS'134'
p1254
aF873.7265000000001
aa(lp1255
S'HCDR3'
p1256
aS'135'
p1257
aF-3.7098000000000004
aa(lp1258
S'HCDR3'
p1259
aS'136'
p1260
aF-0.125
aa(lp1261
S'HCDR3'
p1262
aS'137'
p1263
aF2.3780000000000001
aa(lp1264
S'HCDR3'
p1265
aS'426'
p1266
aF10000000037.397701
aa(lp1267
S'HCDR3'
p1268
aS'427'
p1269
aF9999999722.4421005
aa(lp1270
S'HCDR3'
p1271
aS'424'
p1272
aF10000000044.147301
aa(lp1273
S'HV'
p1274
aS'47'
p1275
aF0.27460000000000001
aa(lp1276
S'HCDR3'
p1277
aS'422'
p1278
aF10000000071.665501
aa(lp1279
S'HCDR3'
p1280
aS'423'
p1281
aF9999999632.1956005
aa(lp1282
S'HCDR3'
p1283
aS'420'
p1284
aF188813893.07300001
aa(lp1285
S'HCDR3'
p1286
aS'421'
p1287
aF98700734.476999998
aa(lp1288
S'HCDR3'
p1289
aS'428'
p1290
aF10000000112.800301
aa(lp1291
S'LV'
p1292
aS'17'
p1293
aF-4.0061999999999998
aa(lp1294
S'LV'
p1295
aS'16'
p1296
aF90662.065900000001
aa(lp1297
S'KV'
p1298
aS'24'
p1299
aF0.29890000000000017
aa(lp1300
S'KCDR3'
p1301
aS'14'
p1302
aF3347743.9679999999
aa(lp1303
S'LV'
p1304
aS'7'
aF347.47730000000001
aa(lp1305
S'HV'
p1306
aS'48'
p1307
aF1.9118999999999999
aa(lp1308
S'HV'
p1309
aS'49'
p1310
aF-1.6313
aa(lp1311
S'HCDR3'
p1312
aS'255'
p1313
aF-6.1513
aa(lp1314
S'HCDR3'
p1315
aS'254'
p1316
aF-12.709099999999999
aa(lp1317
S'HCDR3'
p1318
aS'257'
p1319
aF3.0303
aa(lp1320
S'HCDR3'
p1321
aS'256'
p1322
aF-3.5113000000000003
aa(lp1323
S'HCDR3'
p1324
aS'251'
p1325
aF-7.9104999999999999
aa(lp1326
S'HCDR3'
p1327
aS'250'
p1328
aF1025979.0563000001
aa(lp1329
S'HCDR3'
p1330
aS'253'
p1331
aF-4.2199999999999998
aa(lp1332
S'HCDR3'
p1333
aS'252'
p1334
aF2964023.7343000001
aa(lp1335
S'HCDR3'
p1336
aS'259'
p1337
aF35888.7327
aa(lp1338
S'HCDR3'
p1339
aS'258'
p1340
aF9930200.7796
aa(lp1341
S'KCDR3'
p1342
aS'11'
p1343
aF7915.1361999999999
aa(lp1344
S'HCDR3'
p1345
aS'36'
p1346
aF-0.78210000000000002
aa(lp1347
S'HCDR3'
p1348
aS'37'
p1349
aF1.1328
aa(lp1350
S'HCDR3'
p1351
aS'34'
p1352
aF-0.1615
aa(lp1353
S'HCDR3'
p1354
aS'35'
p1355
aF-2.7631999999999999
aa(lp1356
S'HCDR3'
p1357
aS'32'
p1358
aF-0.18159999999999998
aa(lp1359
S'HCDR3'
p1360
aS'33'
p1361
aF-0.70779999999999998
aa(lp1362
S'HV'
p1363
aS'128'
p1364
aF2.6473000000000004
aa(lp1365
S'HV'
p1366
aS'129'
p1367
aF3.7902000000000005
aa(lp1368
S'HV'
p1369
aS'126'
p1370
aF2.6110999999999995
aa(lp1371
S'HV'
p1372
aS'127'
p1373
aF1.8132000000000001
aa(lp1374
S'HV'
p1375
aS'124'
p1376
aF2.5099
aa(lp1377
S'HV'
p1378
aS'125'
p1379
aF1.3696999999999999
aa(lp1380
S'HV'
p1381
aS'122'
p1382
aF-0.82689999999999986
aa(lp1383
S'HV'
p1384
aS'123'
p1385
aF-4.2109000000000005
aa(lp1386
S'HV'
p1387
aS'120'
p1388
aF-2.5124
aa(lp1389
S'HV'
p1390
aS'121'
p1391
aF-0.4214
aa(lp1392
S'LCDR3'
p1393
aS'25'
p1394
aF0.89110000000000023
aa(lp1395
S'LCDR3'
p1396
aS'24'
p1397
aF2.7006000000000001
aa(lp1398
S'LV'
p1399
aS'5'
aF29395179.5955
aa(lp1400
S'LCDR3'
p1401
aS'26'
p1402
aF0.83239999999999981
aa(lp1403
S'LCDR3'
p1404
aS'21'
p1405
aF-1.6393999999999997
aa(lp1406
S'LCDR3'
p1407
aS'20'
p1408
aF135.89620000000002
aa(lp1409
S'LCDR3'
p1410
aS'23'
p1411
aF114168.60460000001
aa(lp1412
S'LCDR3'
p1413
aS'22'
p1414
aF0.49679999999999991
aa(lp1415
S'LCDR3'
p1416
aS'29'
p1417
aF1.6106
aa(lp1418
S'LCDR3'
p1419
aS'28'
p1420
aF19.5471
aa(lp1421
S'KV'
p1422
aS'49'
p1423
aF10000000128.515902
aa(lp1424
S'KV'
p1425
aS'48'
p1426
aF10000000123.174601
aa(lp1427
S'KV'
p1428
aS'43'
p1429
aF7725895302.2975006
aa(lp1430
S'KCDR3'
p1431
aS'72'
p1432
aF86094.282399999996
aa(lp1433
S'KV'
p1434
aS'41'
p1435
aF10000000109.073601
aa(lp1436
S'KV'
p1437
aS'40'
p1438
aF1827385048.5837998
aa(lp1439
S'KV'
p1440
aS'47'
p1441
aF10000000065.6194
aa(lp1442
S'KV'
p1443
aS'46'
p1444
aF9999999931.4542007
aa(lp1445
S'KV'
p1446
aS'45'
p1447
aF10000000032.036301
aa(lp1448
S'KV'
p1449
aS'44'
p1450
aF14732124.199899999
aa(lp1451
S'HCDR3'
p1452
aS'374'
p1453
aF0.27110000000000001
aa(lp1454
S'HV'
p1455
aS'18'
p1456
aF-1.8796999999999999
aa(lp1457
S'LV'
p1458
aS'3'
aF2126042.2807
aa(lp1459
S'HV'
p1460
aS'15'
p1461
aF-0.079399999999999915
aa(lp1462
S'HCDR3'
p1463
aS'379'
p1464
aF27476.288099999998
aa(lp1465
S'KJ'
p1466
aS'1'
aF0
aa(lp1467
S'LV'
p1468
aS'2'
aF4932395.8444999997
aa(lp1469
S'KJ'
p1470
aS'2'
aF0
aa(lp1471
S'HV'
p1472
aS'80'
p1473
aF0.19730000000000003
aa(lp1474
S'HV'
p1475
aS'81'
p1476
aF-1.3795000000000002
aa(lp1477
S'HV'
p1478
aS'82'
p1479
aF5.4086999999999996
aa(lp1480
S'HV'
p1481
aS'83'
p1482
aF-3.2476000000000003
aa(lp1483
S'HV'
p1484
aS'84'
p1485
aF-0.19319999999999998
aa(lp1486
S'HV'
p1487
aS'85'
p1488
aF-0.188
aa(lp1489
S'HV'
p1490
aS'86'
p1491
aF-0.22970000000000002
aa(lp1492
S'HV'
p1493
aS'87'
p1494
aF-1.5649
aa(lp1495
S'HV'
p1496
aS'88'
p1497
aF-2.4963000000000002
aa(lp1498
S'HV'
p1499
aS'89'
p1500
aF-2.5705
aa(lp1501
S'KCDR3'
p1502
aS'126'
p1503
aF2111.7378000000003
aa(lp1504
S'KCDR3'
p1505
aS'127'
p1506
aF1010.9174
aa(lp1507
S'KCDR3'
p1508
aS'120'
p1509
aF51657.192299999995
aa(lp1510
S'KCDR3'
p1511
aS'121'
p1512
aF115971.1832
aa(lp1513
S'KCDR3'
p1514
aS'122'
p1515
aF49387.830799999996
aa(lp1516
S'KCDR3'
p1517
aS'123'
p1518
aF20135.7219
aa(lp1519
S'LV'
p1520
aS'1'
aF64.444900000000004
aa(lp1521
S'HCDR3'
p1522
aS'174'
p1523
aF-10.877400000000002
aa(lp1524
S'HCDR3'
p1525
aS'175'
p1526
aF719087.27179999999
aa(lp1527
S'HCDR3'
p1528
aS'176'
p1529
aF-3.3638000000000003
aa(lp1530
S'HCDR3'
p1531
aS'177'
p1532
aF-6.2594000000000003
aa(lp1533
S'HCDR3'
p1534
aS'170'
p1535
aF0.97559999999999991
aa(lp1536
S'HCDR3'
p1537
aS'171'
p1538
aF22839942.5471
aa(lp1539
S'HCDR3'
p1540
aS'172'
p1541
aF590.40129999999999
aa(lp1542
S'HCDR3'
p1543
aS'173'
p1544
aF15497.715899999999
aa(lp1545
S'KCDR3'
p1546
aS'34'
p1547
aF-6.4302999999999999
aa(lp1548
S'HCDR3'
p1549
aS'178'
p1550
aF1176190.8751000001
aa(lp1551
S'HCDR3'
p1552
aS'179'
p1553
aF-9.3506999999999998
aa(lp1554
S'HCDR3'
p1555
aS'372'
p1556
aF200516.60309999998
aa(lp1557
S'HCDR3'
p1558
aS'373'
p1559
aF64.427399999999992
aa(lp1560
S'HCDR3'
p1561
aS'370'
p1562
aF691760974.72739995
aa(lp1563
S'HCDR3'
p1564
aS'371'
p1565
aF10000000018.4634
aa(lp1566
S'HCDR3'
p1567
aS'376'
p1568
aF2346424735.7114997
aa(lp1569
S'HCDR3'
p1570
aS'377'
p1571
aF9999999993.3762016
aa(lp1572
S'HV'
p1573
aS'19'
p1574
aF-0.50150000000000006
aa(lp1575
S'HCDR3'
p1576
aS'375'
p1577
aF1378261983.1819
aa(lp1578
S'HV'
p1579
aS'17'
p1580
aF-3.6856
aa(lp1581
S'HV'
p1582
aS'16'
p1583
aF-2.6086
aa(lp1584
S'HCDR3'
p1585
aS'378'
p1586
aF21062372.660299998
aa(lp1587
S'HV'
p1588
aS'14'
p1589
aF-0.055599999999999983
aa(lp1590
S'HV'
p1591
aS'13'
p1592
aF-3.1525999999999996
aa(lp1593
S'HV'
p1594
aS'12'
p1595
aF-4.2751999999999999
aa(lp1596
S'HV'
p1597
aS'11'
p1598
aF0.17799999999999994
aa(lp1599
S'HV'
p1600
aS'10'
p1601
aF-0.48330000000000001
aa(lp1602
S'HCDR3'
p1603
aS'198'
p1604
aF-0.1221000000000001
aa(lp1605
S'HCDR3'
p1606
aS'199'
p1607
aF-2.0141999999999998
aa(lp1608
S'HCDR3'
p1609
aS'192'
p1610
aF9999999994.9687004
aa(lp1611
S'HCDR3'
p1612
aS'193'
p1613
aF437279.39569999999
aa(lp1614
S'HCDR3'
p1615
aS'190'
p1616
aF46.331699999999998
aa(lp1617
S'HCDR3'
p1618
aS'191'
p1619
aF2.1181999999999999
aa(lp1620
S'HCDR3'
p1621
aS'196'
p1622
aF0.99780000000000002
aa(lp1623
S'HCDR3'
p1624
aS'197'
p1625
aF-3.8172999999999999
aa(lp1626
S'HCDR3'
p1627
aS'194'
p1628
aF-8.6327999999999996
aa(lp1629
S'HCDR3'
p1630
aS'195'
p1631
aF-8.1107999999999993
aa(lp1632
S'KCDR3'
p1633
aS'159'
p1634
aF479.05070000000001
aa(lp1635
S'KCDR3'
p1636
aS'158'
p1637
aF22.511800000000001
aa(lp1638
S'KCDR3'
p1639
aS'151'
p1640
aF845.71750000000009
aa(lp1641
S'KCDR3'
p1642
aS'150'
p1643
aF4965.9864000000007
aa(lp1644
S'KCDR3'
p1645
aS'153'
p1646
aF1981.325
aa(lp1647
S'KCDR3'
p1648
aS'152'
p1649
aF1138.6915999999999
aa(lp1650
S'KCDR3'
p1651
aS'155'
p1652
aF-4.8573000000000004
aa(lp1653
S'KCDR3'
p1654
aS'154'
p1655
aF-5.8442999999999996
aa(lp1656
S'KCDR3'
p1657
aS'157'
p1658
aF-16.030000000000001
aa(lp1659
S'KCDR3'
p1660
aS'156'
p1661
aF-9.0739000000000001
aa(lp1662
S'HCDR3'
p1663
aS'291'
p1664
aF843.61699999999996
aa(lp1665
S'HCDR3'
p1666
aS'290'
p1667
aF1.1688000000000001
aa(lp1668
S'HCDR3'
p1669
aS'293'
p1670
aF144873.4762
aa(lp1671
S'HCDR3'
p1672
aS'292'
p1673
aF411451643.40329999
aa(lp1674
S'HCDR3'
p1675
aS'295'
p1676
aF-7.7200999999999995
aa(lp1677
S'HCDR3'
p1678
aS'294'
p1679
aF13364.255999999999
aa(lp1680
S'HCDR3'
p1681
aS'297'
p1682
aF6.7416999999999998
aa(lp1683
S'HCDR3'
p1684
aS'296'
p1685
aF271.30099999999999
aa(lp1686
S'HCDR3'
p1687
aS'299'
p1688
aF21.858799999999999
aa(lp1689
S'HCDR3'
p1690
aS'298'
p1691
aF4272290.1699000001
aa(lp1692
S'HCDR3'
p1693
aS'101'
p1694
aF-1.0522
aa(lp1695
S'HCDR3'
p1696
aS'100'
p1697
aF-1.2425999999999999
aa(lp1698
S'HCDR3'
p1699
aS'103'
p1700
aF1435243.9576999999
aa(lp1701
S'HCDR3'
p1702
aS'102'
p1703
aF0.018600000000000061
aa(lp1704
S'HCDR3'
p1705
aS'105'
p1706
aF-0.97049999999999992
aa(lp1707
S'HCDR3'
p1708
aS'104'
p1709
aF0.088600000000000012
aa(lp1710
S'HCDR3'
p1711
aS'107'
p1712
aF-2.8554999999999997
aa(lp1713
S'HCDR3'
p1714
aS'106'
p1715
aF2145.482
aa(lp1716
S'HCDR3'
p1717
aS'109'
p1718
aF0.74319999999999986
aa(lp1719
S'HCDR3'
p1720
aS'108'
p1721
aF10.153499999999999
aa(lp1722
S'HCDR3'
p1723
aS'72'
p1724
aF-0.21680000000000005
aa(lp1725
S'HCDR3'
p1726
aS'73'
p1727
aF3.0634000000000001
aa(lp1728
S'HCDR3'
p1729
aS'70'
p1730
aF-0.67609999999999992
aa(lp1731
S'HCDR3'
p1732
aS'71'
p1733
aF3.0681000000000003
aa(lp1734
S'HCDR3'
p1735
aS'76'
p1736
aF3.3025000000000002
aa(lp1737
S'HCDR3'
p1738
aS'77'
p1739
aF1.5091999999999999
aa(lp1740
S'HCDR3'
p1741
aS'74'
p1742
aF-1.9474999999999998
aa(lp1743
S'HCDR3'
p1744
aS'75'
p1745
aF-0.91809999999999992
aa(lp1746
S'LV'
p1747
aS'26'
p1748
aF1757.9419
aa(lp1749
S'LV'
p1750
aS'27'
p1751
aF1472.9432999999999
aa(lp1752
S'HCDR3'
p1753
aS'78'
p1754
aF-0.25389999999999979
aa(lp1755
S'HCDR3'
p1756
aS'79'
p1757
aF0.19120000000000004
aa(lp1758
S'LV'
p1759
aS'22'
p1760
aF-8.1888000000000005
aa(lp1761
S'LV'
p1762
aS'23'
p1763
aF1041879122.6428001
aa(lp1764
S'LV'
p1765
aS'20'
p1766
aF-3.3677999999999995
aa(lp1767
S'KCDR3'
p1768
aS'73'
p1769
aF9999999950.5897007
aa(lp1770
S'KCDR3'
p1771
aS'38'
p1772
aF42.166499999999999
aa(lp1773
S'HCDR3'
p1774
aS'152'
p1775
aF10000000069.816801
aa(lp1776
S'KCDR3'
p1777
aS'13'
p1778
aF413.27089999999998
aa(lp1779
S'KCDR3'
p1780
aS'177'
p1781
aF83.823400000000007
aa(lp1782
S'KCDR3'
p1783
aS'37'
p1784
aF-5.9931000000000001
aa(lp1785
S'KCDR3'
p1786
aS'36'
p1787
aF-5.1055000000000001
aa(lp1788
S'HCDR3'
p1789
aS'208'
p1790
aF1537.0352
aa(lp1791
S'HCDR3'
p1792
aS'209'
p1793
aF-7.4168000000000003
aa(lp1794
S'KCDR3'
p1795
aS'33'
p1796
aF22993.454999999998
aa(lp1797
S'KCDR3'
p1798
aS'32'
p1799
aF9067.4160999999986
aa(lp1800
S'KCDR3'
p1801
aS'31'
p1802
aF15007.914699999999
aa(lp1803
S'KCDR3'
p1804
aS'30'
p1805
aF326495.5662
aa(lp1806
S'HCDR3'
p1807
aS'202'
p1808
aF0.57840000000000025
aa(lp1809
S'HCDR3'
p1810
aS'203'
p1811
aF-5.8843999999999994
aa(lp1812
S'HCDR3'
p1813
aS'200'
p1814
aF42654.241600000001
aa(lp1815
S'HCDR3'
p1816
aS'201'
p1817
aF-3.4430999999999998
aa(lp1818
S'HCDR3'
p1819
aS'206'
p1820
aF74.102900000000005
aa(lp1821
S'HCDR3'
p1822
aS'207'
p1823
aF-5.2595999999999998
aa(lp1824
S'HCDR3'
p1825
aS'204'
p1826
aF-2.6585000000000001
aa(lp1827
S'HCDR3'
p1828
aS'205'
p1829
aF11.7507
aa(lp1830
S'KJ'
p1831
aS'5'
aF0
aa(lp1832
S'KCDR3'
p1833
aS'79'
p1834
aF313.233
aa(lp1835
S'HCDR3'
p1836
aS'401'
p1837
aF4613362918.0745001
aa(lp1838
S'KCDR3'
p1839
aS'95'
p1840
aF5049.1471000000001
aa(lp1841
S'LCDR3'
p1842
aS'18'
p1843
aF6323.1683999999996
aa(lp1844
S'LCDR3'
p1845
aS'19'
p1846
aF-2.8615000000000004
aa(lp1847
S'KCDR3'
p1848
aS'94'
p1849
aF468800.16700000002
aa(lp1850
S'LCDR3'
p1851
aS'14'
p1852
aF-13.599600000000001
aa(lp1853
S'LCDR3'
p1854
aS'15'
p1855
aF-16.021599999999999
aa(lp1856
S'LCDR3'
p1857
aS'16'
p1858
aF-6.8500000000000014
aa(lp1859
S'LV'
p1860
aS'4'
aF13610563.6735
aa(lp1861
S'LCDR3'
p1862
aS'10'
p1863
aF-8.9972999999999992
aa(lp1864
S'KCDR3'
p1865
aS'97'
p1866
aF171.3201
aa(lp1867
S'LCDR3'
p1868
aS'12'
p1869
aF-2.653
aa(lp1870
S'LCDR3'
p1871
aS'13'
p1872
aF1347.5423000000001
aa(lp1873
S'KCDR3'
p1874
aS'163'
p1875
aF4970.9521999999997
aa(lp1876
S'KCDR3'
p1877
aS'91'
p1878
aF65330.614500000003
aa(lp1879
S'KCDR3'
p1880
aS'2'
aF1.9399
aa(lp1881
S'KCDR3'
p1882
aS'188'
p1883
aF124.5256
aa(lp1884
S'KCDR3'
p1885
aS'90'
p1886
aF7410.1877999999997
aa(lp1887
S'KCDR3'
p1888
aS'15'
p1889
aF44918.421999999999
aa(lp1890
S'KCDR3'
p1891
aS'166'
p1892
aF2395949.3139
aa(lp1893
S'LJ'
p1894
aS'3'
aF0
aa(lp1895
S'LJ'
p1896
aS'2'
aF0
aa(lp1897
S'LJ'
p1898
aS'1'
aF0
aa(lp1899
S'KCDR3'
p1900
aS'189'
p1901
aF30.468000000000004
aa(lp1902
S'LJ'
p1903
aS'7'
aF0
aa(lp1904
S'KCDR3'
p1905
aS'139'
p1906
aF-9.0274000000000001
aa(lp1907
S'LJ'
p1908
aS'5'
aF0
aa(lp1909
S'LJ'
p1910
aS'4'
aF0
aa(lp1911
S'KCDR3'
p1912
aS'138'
p1913
aF1.0020000000000007
aa(lp1914
S'HCDR3'
p1915
aS'98'
p1916
aF10.8057
aa(lp1917
S'HCDR3'
p1918
aS'99'
p1919
aF23796.481600000003
aa(lp1920
S'HCDR3'
p1921
aS'338'
p1922
aF60024.234399999994
aa(lp1923
S'HCDR3'
p1924
aS'339'
p1925
aF16768065.640600001
aa(lp1926
S'HCDR3'
p1927
aS'336'
p1928
aF18.2257
aa(lp1929
S'HCDR3'
p1930
aS'337'
p1931
aF3062460.1091
aa(lp1932
S'HCDR3'
p1933
aS'334'
p1934
aF194533468.32050002
aa(lp1935
S'HCDR3'
p1936
aS'335'
p1937
aF-5.6781000000000006
aa(lp1938
S'HCDR3'
p1939
aS'94'
p1940
aF2.0197999999999996
aa(lp1941
S'HCDR3'
p1942
aS'95'
p1943
aF-6.5058999999999996
aa(lp1944
S'HCDR3'
p1945
aS'96'
p1946
aF2.2210000000000001
aa(lp1947
S'HCDR3'
p1948
aS'331'
p1949
aF-15.944800000000001
aa(lp1950
S'KCDR3'
p1951
aS'101'
p1952
aF107.4222
aa(lp1953
S'KCDR3'
p1954
aS'17'
p1955
aF20.7288
aa(lp1956
S'KCDR3'
p1957
aS'12'
p1958
aF8011.2589000000007
aa(lp1959
S'KCDR3'
p1960
aS'115'
p1961
aF99.755899999999997
aa(lp1962
S'KCDR3'
p1963
aS'114'
p1964
aF60.950900000000004
aa(lp1965
S'KV'
p1966
aS'8'
aF-7.8063000000000002
aa(lp1967
S'KV'
p1968
aS'9'
aF-4.2395000000000005
aa(lp1969
S'KCDR3'
p1970
aS'111'
p1971
aF799431872.23680007
aa(lp1972
S'KCDR3'
p1973
aS'135'
p1974
aF116.7865
aa(lp1975
S'KCDR3'
p1976
aS'113'
p1977
aF19.293800000000001
aa(lp1978
S'KCDR3'
p1979
aS'112'
p1980
aF2864.4308000000001
aa(lp1981
S'KV'
p1982
aS'2'
aF4.0369000000000002
aa(lp1983
S'KV'
p1984
aS'1'
aF-2.7042999999999999
aa(lp1985
S'KV'
p1986
aS'6'
aF-29.455200000000001
aa(lp1987
S'KV'
p1988
aS'7'
aF-29.700199999999999
aa(lp1989
S'KV'
p1990
aS'4'
aF-7.7188999999999997
aa(lp1991
S'KV'
p1992
aS'5'
aF-6.9996999999999998
aa(lp1993
S'HCDR3'
p1994
aS'419'
p1995
aF5141009645.4130001
aa(lp1996
S'HCDR3'
p1997
aS'418'
p1998
aF9999999956.7589016
aa(lp1999
S'HCDR3'
p2000
aS'149'
p2001
aF2.5427
aa(lp2002
S'HCDR3'
p2003
aS'148'
p2004
aF1.2433999999999998
aa(lp2005
S'HCDR3'
p2006
aS'413'
p2007
aF92.362099999999998
aa(lp2008
S'HCDR3'
p2009
aS'412'
p2010
aF9999999924.1325016
aa(lp2011
S'HCDR3'
p2012
aS'411'
p2013
aF10000000036.4862
aa(lp2014
S'HCDR3'
p2015
aS'410'
p2016
aF-4.3288000000000002
aa(lp2017
S'HCDR3'
p2018
aS'141'
p2019
aF0.070300000000000473
aa(lp2020
S'HCDR3'
p2021
aS'416'
p2022
aF10000000116.485102
aa(lp2023
S'HCDR3'
p2024
aS'143'
p2025
aF-7.1426999999999996
aa(lp2026
S'HCDR3'
p2027
aS'142'
p2028
aF-2.8159000000000001
aa(lp2029
S'HV'
p2030
aS'44'
p2031
aF0.51249999999999996
aa(lp2032
S'HV'
p2033
aS'45'
p2034
aF0.41689999999999994
aa(lp2035
S'HV'
p2036
aS'46'
p2037
aF-0.67500000000000004
aa(lp2038
S'HCDR3'
p2039
aS'388'
p2040
aF181832.88860000001
aa(lp2041
S'HV'
p2042
aS'40'
p2043
aF-1.2505999999999999
aa(lp2044
S'HV'
p2045
aS'41'
p2046
aF0.87729999999999997
aa(lp2047
S'HV'
p2048
aS'42'
p2049
aF-0.84970000000000001
aa(lp2050
S'HV'
p2051
aS'43'
p2052
aF-0.82729999999999992
aa(lp2053
S'HCDR3'
p2054
aS'383'
p2055
aF75141.885899999994
aa(lp2056
S'HCDR3'
p2057
aS'382'
p2058
aF15425692.578300001
aa(lp2059
S'HCDR3'
p2060
aS'381'
p2061
aF9999999977.5707016
aa(lp2062
S'HCDR3'
p2063
aS'380'
p2064
aF6745909.3563999999
aa(lp2065
S'HCDR3'
p2066
aS'387'
p2067
aF10169877.258400001
aa(lp2068
S'HCDR3'
p2069
aS'386'
p2070
aF57867206.261700004
aa(lp2071
S'HCDR3'
p2072
aS'385'
p2073
aF1702952955.3177001
aa(lp2074
S'HCDR3'
p2075
aS'384'
p2076
aF20699590.935599998
aa(lp2077
S'KCDR3'
p2078
aS'178'
p2079
aF22.909500000000001
aa(lp2080
S'KCDR3'
p2081
aS'9'
aF1927.9395
aa(lp2082
S'KCDR3'
p2083
aS'27'
p2084
aF19810576.336800002
aa(lp2085
S'KCDR3'
p2086
aS'10'
p2087
aF167631.49419999999
aa(lp2088
S'LV'
p2089
aS'28'
p2090
aF-2.6452999999999998
aa(lp2091
S'LV'
p2092
aS'29'
p2093
aF-2.2364999999999999
aa(lp2094
S'KCDR3'
p2095
aS'8'
aF3359318.5891
aa(lp2096
S'HCDR3'
p2097
aS'246'
p2098
aF-26.570899999999998
aa(lp2099
S'HCDR3'
p2100
aS'247'
p2101
aF12597827.5395
aa(lp2102
S'HCDR3'
p2103
aS'244'
p2104
aF294701.50790000003
aa(lp2105
S'HCDR3'
p2106
aS'245'
p2107
aF121.5947
aa(lp2108
S'HCDR3'
p2109
aS'242'
p2110
aF187471.50169999999
aa(lp2111
S'HCDR3'
p2112
aS'243'
p2113
aF10000000066.548901
aa(lp2114
S'HCDR3'
p2115
aS'240'
p2116
aF-0.44079999999999986
aa(lp2117
S'HCDR3'
p2118
aS'241'
p2119
aF-5.5100999999999996
aa(lp2120
S'LV'
p2121
aS'32'
p2122
aF-4.4324000000000003
aa(lp2123
S'KCDR3'
p2124
aS'71'
p2125
aF11016.3714
aa(lp2126
S'LV'
p2127
aS'24'
p2128
aF1234614941.2172
aa(lp2129
S'HCDR3'
p2130
aS'248'
p2131
aF-15.4796
aa(lp2132
S'HCDR3'
p2133
aS'249'
p2134
aF124564344.45200001
aa(lp2135
S'HCDR3'
p2136
aS'29'
p2137
aF0.4385
aa(lp2138
S'HCDR3'
p2139
aS'28'
p2140
aF0.24419999999999997
aa(lp2141
S'LV'
p2142
aS'25'
p2143
aF6.0730999999999993
aa(lp2144
S'HCDR3'
p2145
aS'21'
p2146
aF1.9174
aa(lp2147
S'HCDR3'
p2148
aS'20'
p2149
aF-0.6079
aa(lp2150
S'HCDR3'
p2151
aS'23'
p2152
aF1.9999
aa(lp2153
S'HCDR3'
p2154
aS'22'
p2155
aF-0.20939999999999998
aa(lp2156
S'HCDR3'
p2157
aS'25'
p2158
aF1.2395
aa(lp2159
S'HCDR3'
p2160
aS'24'
p2161
aF3.8682000000000003
aa(lp2162
S'HCDR3'
p2163
aS'27'
p2164
aF0.042300000000000004
aa(lp2165
S'HCDR3'
p2166
aS'26'
p2167
aF3.1387999999999998
aa(lp2168
S'HV'
p2169
aS'139'
p2170
aF-0.74429999999999996
aa(lp2171
S'HV'
p2172
aS'138'
p2173
aF-13.7258
aa(lp2174
S'HV'
p2175
aS'135'
p2176
aF-4.2831000000000001
aa(lp2177
S'HV'
p2178
aS'134'
p2179
aF-1.6806999999999999
aa(lp2180
S'HV'
p2181
aS'137'
p2182
aF-4.3703000000000003
aa(lp2183
S'LV'
p2184
aS'21'
p2185
aF-3.1298000000000004
aa(lp2186
S'HV'
p2187
aS'131'
p2188
aF-0.065399999999999903
aa(lp2189
S'HV'
p2190
aS'130'
p2191
aF3.6714000000000002
aa(lp2192
S'HV'
p2193
aS'133'
p2194
aF-3.1278999999999995
aa(lp2195
S'HV'
p2196
aS'132'
p2197
aF-1.587
aa(lp2198
S'KV'
p2199
aS'54'
p2200
aF24.001899999999999
aa(lp2201
S'KV'
p2202
aS'55'
p2203
aF-2.6085000000000003
aa(lp2204
S'KV'
p2205
aS'56'
p2206
aF-2.9321000000000002
aa(lp2207
S'KV'
p2208
aS'57'
p2209
aF5.0673000000000004
aa(lp2210
S'KV'
p2211
aS'50'
p2212
aF10000000116.8421
aa(lp2213
S'KV'
p2214
aS'51'
p2215
aF-1.3704999999999998
aa(lp2216
S'KV'
p2217
aS'52'
p2218
aF6.4249000000000009
aa(lp2219
S'KV'
p2220
aS'53'
p2221
aF1.8430999999999997
aa(lp2222
S'KV'
p2223
aS'58'
p2224
aF-2.6425999999999998
aa(lp2225
S'KV'
p2226
aS'59'
p2227
aF-0.13300000000000001
aa(lp2228
S'KCDR3'
p2229
aS'194'
p2230
aF764256.70350000006
aa(lp2231
S'KCDR3'
p2232
aS'48'
p2233
aF21202.978899999998
aa(lp2234
S'KCDR3'
p2235
aS'49'
p2236
aF870.51840000000004
aa(lp2237
S'KCDR3'
p2238
aS'46'
p2239
aF1522490651.3081
aa(lp2240
S'KCDR3'
p2241
aS'47'
p2242
aF4110.5507000000007
aa(lp2243
S'KCDR3'
p2244
aS'44'
p2245
aF2.8662999999999998
aa(lp2246
S'KCDR3'
p2247
aS'45'
p2248
aF5.2342999999999993
aa(lp2249
S'KCDR3'
p2250
aS'42'
p2251
aF820.24830000000009
aa(lp2252
S'KCDR3'
p2253
aS'43'
p2254
aF8.1425999999999998
aa(lp2255
S'KCDR3'
p2256
aS'40'
p2257
aF7261826.1277999999
aa(lp2258
S'KCDR3'
p2259
aS'41'
p2260
aF31755163.700199999
aa(lp2261
S'LV'
p2262
aS'18'
p2263
aF-8.4245000000000001
aa(lp2264
S'KCDR3'
p2265
aS'165'
p2266
aF1775.3869
aa(lp2267
S'HCDR3'
p2268
aS'361'
p2269
aF548258.73340000003
aa(lp2270
S'KJ'
p2271
aS'4'
aF0
aa(lp2272
S'HCDR3'
p2273
aS'360'
p2274
aF-13.151499999999999
aa(lp2275
S'KCDR3'
p2276
aS'186'
p2277
aF636673698.85479999
aa(lp2278
S'KCDR3'
p2279
aS'75'
p2280
aF-4.6517999999999997
aa(lp2281
S'HCDR3'
p2282
aS'363'
p2283
aF5134403310.1370001
aa(lp2284
S'HCDR3'
p2285
aS'362'
p2286
aF105572877.244
aa(lp2287
S'HCDR3'
p2288
aS'365'
p2289
aF543122848.8549
aa(lp2290
S'HCDR3'
p2291
aS'364'
p2292
aF291826995.088
aa(lp2293
S'KCDR3'
p2294
aS'129'
p2295
aF10000000059.645102
aa(lp2296
S'HV'
p2297
aS'79'
p2298
aF-0.32709999999999995
aa(lp2299
S'HV'
p2300
aS'78'
p2301
aF-1.8284
aa(lp2302
S'HV'
p2303
aS'75'
p2304
aF0.2376999999999998
aa(lp2305
S'HV'
p2306
aS'74'
p2307
aF-0.052300000000000013
aa(lp2308
S'HV'
p2309
aS'77'
p2310
aF-1.5876999999999999
aa(lp2311
S'HV'
p2312
aS'76'
p2313
aF-13.964699999999999
aa(lp2314
S'HV'
p2315
aS'71'
p2316
aF1.1859999999999999
aa(lp2317
S'HV'
p2318
aS'70'
p2319
aF1.1445000000000001
aa(lp2320
S'HV'
p2321
aS'73'
p2322
aF0.37019999999999997
aa(lp2323
S'HV'
p2324
aS'72'
p2325
aF1.2303000000000002
aa(lp2326
S'HCDR3'
p2327
aS'389'
p2328
aF3636417326.0379
aa(lp2329
S'KCDR3'
p2330
aS'187'
p2331
aF8.5717999999999996
aa(lp2332
S'KCDR3'
p2333
aS'184'
p2334
aF53.704599999999999
aa(lp2335
S'KCDR3'
p2336
aS'185'
p2337
aF897376.52780000004
aa(lp2338
S'LCDR3'
p2339
aS'39'
p2340
aF140.49849999999998
aa(lp2341
S'HCDR3'
p2342
aS'347'
p2343
aF947.22149999999999
aa(lp2344
S'HCDR3'
p2345
aS'346'
p2346
aF-9.1288
aa(lp2347
S'HCDR3'
p2348
aS'345'
p2349
aF577198604.76200008
aa(lp2350
S'HCDR3'
p2351
aS'344'
p2352
aF1935.3764999999999
aa(lp2353
S'HCDR3'
p2354
aS'343'
p2355
aF2542808.091
aa(lp2356
S'HCDR3'
p2357
aS'342'
p2358
aF918651.85499999998
aa(lp2359
S'HCDR3'
p2360
aS'341'
p2361
aF462000931.85150003
aa(lp2362
S'HCDR3'
p2363
aS'340'
p2364
aF280104.68220000004
aa(lp2365
S'HCDR3'
p2366
aS'349'
p2367
aF26.740299999999998
aa(lp2368
S'HCDR3'
p2369
aS'348'
p2370
aF9999999814.2692013
aa(lp2371
S'LCDR3'
p2372
aS'1'
aF8519.7672000000002
aa(lp2373
S'KCDR3'
p2374
aS'148'
p2375
aF4655.5113999999994
aa(lp2376
S'KCDR3'
p2377
aS'149'
p2378
aF1527.9224999999999
aa(lp2379
S'KCDR3'
p2380
aS'142'
p2381
aF12977.954900000001
aa(lp2382
S'KCDR3'
p2383
aS'143'
p2384
aF-0.98939999999999984
aa(lp2385
S'KCDR3'
p2386
aS'140'
p2387
aF-2.0702000000000003
aa(lp2388
S'KCDR3'
p2389
aS'141'
p2390
aF465.60239999999999
aa(lp2391
S'KCDR3'
p2392
aS'146'
p2393
aF-0.48219999999999974
aa(lp2394
S'KCDR3'
p2395
aS'147'
p2396
aF-2.4503999999999997
aa(lp2397
S'KCDR3'
p2398
aS'144'
p2399
aF19.5608
aa(lp2400
S'KCDR3'
p2401
aS'145'
p2402
aF3.0232000000000001
aa(lp2403
S'HCDR3'
p2404
aS'282'
p2405
aF11287302.5579
aa(lp2406
S'HCDR3'
p2407
aS'283'
p2408
aF-7.6737000000000002
aa(lp2409
S'HCDR3'
p2410
aS'280'
p2411
aF1.5072999999999999
aa(lp2412
S'HCDR3'
p2413
aS'281'
p2414
aF1285847.6184999999
aa(lp2415
S'HCDR3'
p2416
aS'286'
p2417
aF10000000006.0569
aa(lp2418
S'HCDR3'
p2419
aS'287'
p2420
aF9999999936.1355
aa(lp2421
S'HCDR3'
p2422
aS'284'
p2423
aF-0.26710000000000012
aa(lp2424
S'HCDR3'
p2425
aS'285'
p2426
aF31195.342500000002
aa(lp2427
S'HCDR3'
p2428
aS'288'
p2429
aF-1.2949999999999999
aa(lp2430
S'HCDR3'
p2431
aS'289'
p2432
aF2459895329.0506001
aa(lp2433
S'HV'
p2434
aS'24'
p2435
aF-7.8620999999999999
aa(lp2436
S'HCDR3'
p2437
aS'112'
p2438
aF-1.5676000000000001
aa(lp2439
S'HCDR3'
p2440
aS'113'
p2441
aF-3.6534999999999997
aa(lp2442
S'HCDR3'
p2443
aS'110'
p2444
aF-2.2944999999999998
aa(lp2445
S'HCDR3'
p2446
aS'111'
p2447
aF-1.6792000000000002
aa(lp2448
S'HCDR3'
p2449
aS'116'
p2450
aF-0.37729999999999997
aa(lp2451
S'HCDR3'
p2452
aS'117'
p2453
aF-2.4156
aa(lp2454
S'HCDR3'
p2455
aS'114'
p2456
aF-3.5749
aa(lp2457
S'HCDR3'
p2458
aS'115'
p2459
aF-3.0230000000000001
aa(lp2460
S'KCDR3'
p2461
aS'125'
p2462
aF2831.5410999999999
aa(lp2463
S'HCDR3'
p2464
aS'118'
p2465
aF-2.6299999999999999
aa(lp2466
S'HCDR3'
p2467
aS'119'
p2468
aF122.98350000000001
aa(lp2469
S'HCDR3'
p2470
aS'65'
p2471
aF0.22170000000000001
aa(lp2472
S'HCDR3'
p2473
aS'64'
p2474
aF-1.2995000000000001
aa(lp2475
S'HCDR3'
p2476
aS'67'
p2477
aF2.5109999999999997
aa(lp2478
S'HCDR3'
p2479
aS'66'
p2480
aF-3.0074999999999998
aa(lp2481
S'HCDR3'
p2482
aS'61'
p2483
aF1.0963000000000001
aa(lp2484
S'HCDR3'
p2485
aS'60'
p2486
aF-1.6660999999999999
aa(lp2487
S'HCDR3'
p2488
aS'63'
p2489
aF-1.9830000000000001
aa(lp2490
S'HCDR3'
p2491
aS'62'
p2492
aF0.18840000000000001
aa(lp2493
S'LV'
p2494
aS'13'
p2495
aF149.93889999999999
aa(lp2496
S'LV'
p2497
aS'12'
p2498
aF3189.5855999999999
aa(lp2499
S'LV'
p2500
aS'11'
p2501
aF2827.2233999999999
aa(lp2502
S'LV'
p2503
aS'10'
p2504
aF12980.8439
aa(lp2505
S'HCDR3'
p2506
aS'69'
p2507
aF-0.61719999999999997
aa(lp2508
S'HCDR3'
p2509
aS'68'
p2510
aF1.3363
aa(lp2511
S'LV'
p2512
aS'15'
p2513
aF119.4885
aa(lp2514
S'LV'
p2515
aS'14'
p2516
aF10000000538.983601
aa(lp2517
S'HCDR3'
p2518
aS'300'
p2519
aF210939923.7462
aa(lp2520
S'KJ'
p2521
aS'3'
aF0
aa(lp2522
S'KV'
p2523
aS'18'
p2524
aF3.9727000000000001
aa(lp2525
S'KV'
p2526
aS'19'
p2527
aF5.1632999999999996
aa(lp2528
S'KV'
p2529
aS'10'
p2530
aF-0.31159999999999988
aa(lp2531
S'KV'
p2532
aS'11'
p2533
aF-1.5448
aa(lp2534
S'KV'
p2535
aS'12'
p2536
aF-1.3567
aa(lp2537
S'KV'
p2538
aS'13'
p2539
aF-2.8260999999999998
aa(lp2540
S'KV'
p2541
aS'14'
p2542
aF-2.5508999999999999
aa(lp2543
S'KV'
p2544
aS'15'
p2545
aF-5.6852999999999998
aa(lp2546
S'KV'
p2547
aS'16'
p2548
aF18.521100000000001
aa(lp2549
S'KV'
p2550
aS'17'
p2551
aF3.8639999999999999
aa(lp2552
S'LV'
p2553
aS'38'
p2554
aF378.66069999999996
aa(lp2555
S'KCDR3'
p2556
aS'39'
p2557
aF6516.7547999999997
aa(lp2558
S'HCDR3'
p2559
aS'239'
p2560
aF23729.355299999999
aa(lp2561
S'HCDR3'
p2562
aS'238'
p2563
aF530795161.21109998
aa(lp2564
S'HCDR3'
p2565
aS'237'
p2566
aF82888.653300000005
aa(lp2567
S'HCDR3'
p2568
aS'236'
p2569
aF214088.10789999997
aa(lp2570
S'HCDR3'
p2571
aS'235'
p2572
aF2590260916.1689
aa(lp2573
S'HCDR3'
p2574
aS'234'
p2575
aF-8.9415000000000013
aa(lp2576
S'HCDR3'
p2577
aS'233'
p2578
aF-10.728400000000001
aa(lp2579
S'HCDR3'
p2580
aS'232'
p2581
aF-0.082000000000000295
aa(lp2582
S'HCDR3'
p2583
aS'231'
p2584
aF43106.136599999998
aa(lp2585
S'HCDR3'
p2586
aS'230'
p2587
aF7755.1648000000005
aa(lp2588
S'HCDR3'
p2589
aS'308'
p2590
aF66393.671699999992
aa(lp2591
S'HCDR3'
p2592
aS'10'
p2593
aF0.86939999999999995
aa(lp2594
S'HCDR3'
p2595
aS'11'
p2596
aF1.4899
aa(lp2597
S'HCDR3'
p2598
aS'12'
p2599
aF0.88439999999999996
aa(lp2600
S'HCDR3'
p2601
aS'13'
p2602
aF-0.16520000000000001
aa(lp2603
S'HCDR3'
p2604
aS'14'
p2605
aF-1.0752999999999999
aa(lp2606
S'HCDR3'
p2607
aS'15'
p2608
aF-1.0526
aa(lp2609
S'HCDR3'
p2610
aS'16'
p2611
aF-0.34520000000000001
aa(lp2612
S'HCDR3'
p2613
aS'17'
p2614
aF-0.93420000000000003
aa(lp2615
S'HCDR3'
p2616
aS'18'
p2617
aF0.34439999999999998
aa(lp2618
S'HCDR3'
p2619
aS'19'
p2620
aF0.051500000000000046
aa(lp2621
S'KCDR3'
p2622
aS'110'
p2623
aF6366.9430000000002
aa(lp2624
S'HCDR3'
p2625
aS'81'
p2626
aF-0.35270000000000001
aa(lp2627
S'KCDR3'
p2628
aS'199'
p2629
aF-8.2193000000000005
aa(lp2630
S'KV'
p2631
aS'65'
p2632
aF5.6577999999999999
aa(lp2633
S'KV'
p2634
aS'64'
p2635
aF-0.010599999999999721
aa(lp2636
S'KV'
p2637
aS'67'
p2638
aF10000000086.874102
aa(lp2639
S'KV'
p2640
aS'66'
p2641
aF2900.3076999999998
aa(lp2642
S'KV'
p2643
aS'61'
p2644
aF3.0784000000000002
aa(lp2645
S'KV'
p2646
aS'60'
p2647
aF0.35189999999999966
aa(lp2648
S'KV'
p2649
aS'63'
p2650
aF-2.7286000000000001
aa(lp2651
S'KV'
p2652
aS'62'
p2653
aF2725.4477000000002
aa(lp2654
S'LV'
p2655
aS'35'
p2656
aF1809.2153000000001
aa(lp2657
S'HCDR3'
p2658
aS'303'
p2659
aF2464.136
aa(lp2660
S'HCDR3'
p2661
aS'302'
p2662
aF444273.12550000002
aa(lp2663
S'HCDR3'
p2664
aS'89'
p2665
aF-1.4298999999999999
aa(lp2666
S'HCDR3'
p2667
aS'88'
p2668
aF-1.6065
aa(lp2669
S'HCDR3'
p2670
aS'307'
p2671
aF0.52559999999999985
aa(lp2672
S'HCDR3'
p2673
aS'306'
p2674
aF1269.4472000000001
aa(lp2675
S'HCDR3'
p2676
aS'305'
p2677
aF-10.133900000000001
aa(lp2678
S'HCDR3'
p2679
aS'304'
p2680
aF335.30880000000002
aa(lp2681
S'HCDR3'
p2682
aS'83'
p2683
aF-0.14639999999999986
aa(lp2684
S'HCDR3'
p2685
aS'82'
p2686
aF-9.0737999999999985
aa(lp2687
S'HCDR3'
p2688
aS'309'
p2689
aF-5.2331000000000003
aa(lp2690
S'HCDR3'
p2691
aS'80'
p2692
aF-4.2698
aa(lp2693
S'HCDR3'
p2694
aS'87'
p2695
aF-1.1284000000000001
aa(lp2696
S'HCDR3'
p2697
aS'86'
p2698
aF-0.1938
aa(lp2699
S'HCDR3'
p2700
aS'85'
p2701
aF-1.8103
aa(lp2702
S'HCDR3'
p2703
aS'84'
p2704
aF0.044300000000000006
aa.