ccopy_reg
_reconstructor
p1
(cmolecules
ProtoAntibody
p2
c__builtin__
object
p3
NtRp4
(dp5
S'energy'
p6
F431.33329999999995
sS'light_chain'
p7
S'K'
sS'cluster'
p8
NsS'parts'
p9
(dp10
S'KJ'
p11
S'3'
sS'KCDR3'
p12
S'128'
p13
sS'HV'
p14
S'8'
sS'HJ'
p15
S'4'
sS'HCDR3'
p16
S'4'
sS'KV'
p17
S'65'
p18
ssS'coords'
p19
NsS'position'
p20
(F300
F-5
F0
F15
tp21
sb.