ccopy_reg
_reconstructor
p1
(cmolecules
ProtoAntibody
p2
c__builtin__
object
p3
NtRp4
(dp5
S'energy'
p6
F37897401.216299996
sS'light_chain'
p7
S'K'
sS'cluster'
p8
NsS'parts'
p9
(dp10
S'KJ'
p11
S'2'
sS'KCDR3'
p12
S'142'
p13
sS'HV'
p14
S'138'
p15
sS'HJ'
p16
S'4'
sS'HCDR3'
p17
S'8'
sS'KV'
p18
S'19'
p19
ssS'coords'
p20
NsS'position'
p21
(F300
F2.5
F10
F13.75
tp22
sb.