ccopy_reg
_reconstructor
p1
(cmolecules
ProtoAntibody
p2
c__builtin__
object
p3
NtRp4
(dp5
S'energy'
p6
F18857368.252499998
sS'light_chain'
p7
S'K'
sS'cluster'
p8
NsS'parts'
p9
(dp10
S'KJ'
p11
S'4'
sS'KCDR3'
p12
S'199'
p13
sS'HV'
p14
S'77'
p15
sS'HJ'
p16
S'1'
sS'HCDR3'
p17
S'8'
sS'KV'
p18
S'1'
ssS'coords'
p19
NsS'position'
p20
(F240
F0
F2.5
F13.75
tp21
sb.