ccopy_reg
_reconstructor
p1
(cmolecules
ProtoAntibody
p2
c__builtin__
object
p3
NtRp4
(dp5
S'energy'
p6
F-36.193300000000008
sS'light_chain'
p7
S'L'
sS'cluster'
p8
NsS'parts'
p9
(dp10
S'HJ'
p11
S'1'
sS'LJ'
p12
S'5'
sS'HV'
p13
S'135'
p14
sS'LV'
p15
S'28'
p16
sS'HCDR3'
p17
S'64'
p18
sS'LCDR3'
p19
S'36'
p20
ssS'coords'
p21
NsS'position'
p22
(F120
F5
F2.5
F15
tp23
sb.