ccopy_reg
_reconstructor
p1
(cmolecules
ProtoAntibody
p2
c__builtin__
object
p3
NtRp4
(dp5
S'energy'
p6
F28502971.176100004
sS'light_chain'
p7
S'K'
sS'cluster'
p8
NsS'parts'
p9
(dp10
S'KJ'
p11
S'2'
sS'KCDR3'
p12
S'175'
p13
sS'HV'
p14
S'56'
p15
sS'HJ'
p16
S'2'
sS'HCDR3'
p17
S'8'
sS'KV'
p18
S'54'
p19
ssS'coords'
p20
NsS'position'
p21
(F240
F0
F5
F12.5
tp22
sb.